(lp0
(lp1
(lp2
V521346721226711040
p3
aI0
aa(lp4
V521352678283444224
p5
aI0
aa(lp6
V521364652522225665
p7
aI0
aa(lp8
V521366121484918785
p9
aI2
aa(lp10
V521352186949672960
p11
aI0
aa(lp12
V521351041154289665
p13
aI0
aa(lp14
V521352500604309506
p15
aI0
aa(lp16
V521355922724388865
p17
aI0
aa(lp18
V521349366037356544
p19
aI0
aa(lp20
V521350130851921921
p21
aI0
aa(lp22
V521367512551002112
p23
aI9
aa(lp24
V521371539082858496
p25
aI10
aa(lp26
V521371742942797825
p27
aI11
aa(lp28
V521356894343294976
p29
aI0
aa(lp30
V521349434719076352
p31
aI0
aa(lp32
V521367394108071936
p33
aI14
aa(lp34
V521367905062379521
p35
aI15
aa(lp36
V521368022880378882
p37
aI16
aa(lp38
V521368940669583360
p39
aI17
aa(lp40
V521351752734769152
p41
aI0
aa(lp42
V521356252740608001
p43
aI0
aa(lp44
V521352738891132929
p45
aI0
aa(lp46
V521353020484096001
p47
aI0
aa(lp48
V521353434881327104
p49
aI22
aa(lp50
V521350466647891968
p51
aI0
aaa(lp52
(lp53
V521360486387175424
p54
aI0
aa(lp55
V521371350934761472
p56
aI0
aa(lp57
V521368262010224640
p58
aI0
aa(lp59
V521373767130710016
p60
aI0
aa(lp61
V521360786409943041
p62
aI0
aa(lp63
V521378427681898498
p64
aI0
aa(lp65
V521468392620834817
p66
aI0
aa(lp67
V521468848466591744
p68
aI6
aa(lp69
V521376439099465728
p70
aI0
aaa.