(lp0
(lp1
(lp2
V580360165540642816
p3
aI0
aa(lp4
V580361957502517248
p5
aI0
aa(lp6
V580361402663231488
p7
aI0
aaa(lp8
(lp9
V580321156508577792
p10
aI0
aa(lp11
V580338933495570432
p12
aI0
aaa(lp13
(lp14
V580320684305416192
p15
aI0
aa(lp16
V580329150180913152
p17
aI0
aa(lp18
V580321148728164353
p19
aI0
aa(lp20
V580321651780399105
p21
aI0
aaa(lp22
(lp23
V580326222107951104
p24
aI0
aa(lp25
V580327755121868800
p26
aI0
aa(lp27
V580732521551396864
p28
aI0
aa(lp29
V583361250639269888
p30
aI0
aa(lp31
V580356158457774080
p32
aI0
aa(lp33
V581098345227227136
p34
aI0
aa(lp35
V580480344173993984
p36
aI0
aa(lp37
V580352961362202624
p38
aI0
aa(lp39
V581283472549023744
p40
aI0
aa(lp41
V580327842183032832
p42
aI0
aa(lp43
V580501976305262592
p44
aI0
aaa(lp45
(lp46
V581386094337474560
p47
aI0
aa(lp48
V581573165492523008
p49
aI0
aa(lp50
V581574401411457024
p51
aI1
aa(lp52
V581575879928590336
p53
aI2
aa(lp54
V581576082362478595
p55
aI2
aa(lp56
V581573267829342208
p57
aI0
aa(lp58
V581389448908300288
p59
aI0
aa(lp60
V581501991005863936
p61
aI0
aa(lp62
V582205500709867520
p63
aI0
aa(lp64
V582048059606994944
p65
aI0
aa(lp66
V581389712063008768
p67
aI0
aaa(lp68
(lp69
V580340476949086208
p70
aI0
aa(lp71
V580341529870348288
p72
aI0
aa(lp73
V580370888303890432
p74
aI0
aa(lp75
V580377249905512450
p76
aI2
aa(lp77
V580341360948948992
p78
aI0
aa(lp79
V580342470472400897
p80
aI0
aa(lp81
V580343913728352257
p82
aI0
aa(lp83
V580348081272676352
p84
aI0
aa(lp85
V580674597298786304
p86
aI0
aa(lp87
V580342824236916737
p88
aI0
aa(lp89
V580343437536395264
p90
aI0
aa(lp91
V580342548394352640
p92
aI0
aa(lp93
V580352023033470976
p94
aI0
aa(lp95
V580342091018084352
p96
aI0
aa(lp97
V580675526307766272
p98
aI0
aa(lp99
V580344272576241664
p100
aI0
aa(lp101
V580360161211990016
p102
aI0
aa(lp103
V580345116658966528
p104
aI0
aaa(lp105
(lp106
V580339547269144576
p107
aI0
aa(lp108
V580340017886728192
p109
aI0
aa(lp110
V580342887910494208
p111
aI0
aa(lp112
V580351502671171584
p113
aI0
aa(lp114
V580342218373890048
p115
aI0
aa(lp116
V580340033384775680
p117
aI0
aa(lp118
V580340609388417024
p119
aI0
aa(lp120
V580347953069592577
p121
aI0
aa(lp122
V580340736815718400
p123
aI0
aa(lp124
V580349082406895616
p125
aI0
aa(lp126
V580345218152734720
p127
aI0
aa(lp128
V580348622421811200
p129
aI0
aa(lp130
V580341230145572865
p131
aI0
aa(lp132
V580341019515883521
p133
aI0
aaa(lp134
(lp135
V580319184652890113
p136
aI0
aa(lp137
V580321926515572737
p138
aI0
aa(lp139
V580319482687680512
p140
aI0
aa(lp141
V580319759532724224
p142
aI2
aa(lp143
V580347685565280256
p144
aI2
aa(lp145
V580339156435345409
p146
aI2
aa(lp147
V580321806285975552
p148
aI2
aa(lp149
V580321411677454336
p150
aI2
aa(lp151
V580358131080925184
p152
aI7
aa(lp153
V580320265030123520
p154
aI0
aaa(lp155
(lp156
V580332109782466561
p157
aI0
aa(lp158
V580332339055726592
p159
aI0
aa(lp160
V580339386262380544
p161
aI0
aa(lp162
V580332419871539200
p163
aI0
aa(lp164
V580332626541694976
p165
aI0
aa(lp166
V580332487819165696
p167
aI0
aa(lp168
V580335390197981184
p169
aI0
aa(lp170
V580357944815972353
p171
aI0
aa(lp172
V580333762677997569
p173
aI0
aa(lp174
V580332678274240512
p175
aI0
aaa(lp176
(lp177
V580348081100734464
p178
aI0
aa(lp179
V580348238705741824
p180
aI0
aa(lp181
V580348826835394560
p182
aI0
aa(lp183
V580360979998900224
p184
aI0
aa(lp185
V580419652792279040
p186
aI3
aa(lp187
V580349775280738304
p188
aI0
aa(lp189
V580349875851784192
p190
aI0
aa(lp191
V580350976026112000
p192
aI6
aa(lp193
V580421457974566912
p194
aI7
aa(lp195
V580422091155095552
p196
aI8
aa(lp197
V580422272575533056
p198
aI8
aa(lp199
V580354381578522625
p200
aI7
aa(lp201
V580351508971200512
p202
aI7
aa(lp203
V580358103255879680
p204
aI12
aa(lp205
V580358531850866688
p206
aI13
aa(lp207
V580418932152102912
p208
aI12
aa(lp209
V580353327470247936
p210
aI7
aa(lp211
V580355004294250496
p212
aI7
aa(lp213
V580351698545319937
p214
aI6
aa(lp215
V580350715408859136
p216
aI6
aa(lp217
V580364951367200770
p218
aI0
aa(lp219
V580419288441491457
p220
aI0
aaa(lp221
(lp222
V581473088249958400
p223
aI0
aa(lp224
V581506195304775681
p225
aI0
aa(lp226
V581473546200707073
p227
aI0
aa(lp228
V581473799398359040
p229
aI0
aa(lp230
V581474582302949376
p231
aI0
aa(lp232
V581478014531203072
p233
aI0
aa(lp234
V581482916645076993
p235
aI0
aaa(lp236
(lp237
V580319078155468800
p238
aI0
aa(lp239
V580320203474542592
p240
aI0
aa(lp241
V580321760735711232
p242
aI0
aa(lp243
V580321698450399232
p244
aI0
aa(lp245
V580320057017896961
p246
aI0
aa(lp247
V580321716838100992
p248
aI0
aa(lp249
V580320982260387840
p250
aI0
aa(lp251
V580320510833086465
p252
aI0
aa(lp253
V580320979995508737
p254
aI0
aa(lp255
V580333382934089728
p256
aI8
aa(lp257
V580333804457496576
p258
aI9
aa(lp259
V580337415241383938
p260
aI10
aa(lp261
V580337664471265280
p262
aI11
aa(lp263
V580337829638598656
p264
aI12
aa(lp265
V580338252361629697
p266
aI11
aa(lp267
V580319546592112640
p268
aI0
aa(lp269
V580322377927692288
p270
aI0
aa(lp271
V580320961439887360
p272
aI0
aa(lp273
V580320708376461312
p274
aI0
aa(lp275
V580319878328020992
p276
aI0
aa(lp277
V580319644013170688
p278
aI0
aa(lp279
V580319622521442304
p280
aI0
aa(lp281
V580320511315587073
p282
aI0
aa(lp283
V580321858014298112
p284
aI0
aa(lp285
V580320280607920128
p286
aI0
aa(lp287
V580319644218687488
p288
aI0
aa(lp289
V580325778207932416
p290
aI25
aa(lp291
V580409410884894720
p292
aI26
aa(lp293
V580409595472060416
p294
aI27
aa(lp295
V580410281018413056
p296
aI28
aa(lp297
V580325939273424896
p298
aI26
aa(lp299
V580326288885420032
p300
aI30
aa(lp301
V580326388110114816
p302
aI31
aaa(lp303
(lp304
V580333909008871424
p305
aI0
aa(lp306
V580486138378452992
p307
aI0
aa(lp308
V580337316687794176
p309
aI0
aa(lp310
V580340509664739328
p311
aI0
aaa(lp312
(lp313
V580882341880446977
p314
aI0
aa(lp315
V580883004945395712
p316
aI0
aa(lp317
V580884146962046977
p318
aI0
aa(lp319
V580883298316062720
p320
aI0
aa(lp321
V580954155092549632
p322
aI0
aa(lp323
V580954643028697088
p324
aI4
aaa(lp325
(lp326
V581063377226637312
p327
aI0
aa(lp328
V581063835194392576
p329
aI0
aa(lp330
V581070383023030272
p331
aI0
aaa(lp332
(lp333
V580339825649291264
p334
aI0
aa(lp335
V580343629593620480
p336
aI0
aa(lp337
V580341810729369600
p338
aI0
aa(lp339
V580340609958858753
p340
aI0
aa(lp341
V580346192367878144
p342
aI0
aa(lp343
V580341606827474946
p344
aI0
aa(lp345
V580417959929212928
p346
aI0
aa(lp347
V580340111981867010
p348
aI0
aa(lp349
V580340526236483584
p350
aI7
aa(lp351
V580376517492023296
p352
aI0
aaa(lp353
(lp354
V580325090367315968
p355
aI0
aa(lp356
V580325976975896577
p357
aI0
aa(lp358
V580325493603471361
p359
aI0
aa(lp360
V580325295841943553
p361
aI0
aa(lp362
V580326527495237632
p363
aI3
aa(lp364
V580476624069619712
p365
aI4
aa(lp366
V580476902344941569
p367
aI5
aa(lp368
V580477320735133696
p369
aI6
aa(lp370
V580477720389398528
p371
aI7
aa(lp372
V580565085090889728
p373
aI8
aa(lp374
V580505722531778562
p375
aI8
aa(lp376
V580477832826130432
p377
aI7
aa(lp378
V581023104970829824
p379
aI11
aa(lp380
V581034287522164736
p381
aI12
aa(lp382
V581034556964245504
p383
aI13
aa(lp384
V581062346321190914
p385
aI13
aa(lp386
V581063618730553344
p387
aI15
aa(lp388
V581063788150980608
p389
aI16
aa(lp390
V581064636373590016
p391
aI17
aa(lp392
V581065340110655488
p393
aI18
aa(lp394
V581065199672655873
p395
aI18
aa(lp396
V581065934598582272
p397
aI18
aa(lp398
V581075660690575360
p399
aI21
aa(lp400
V581194101032255488
p401
aI22
aa(lp402
V581174677554380800
p403
aI22
aa(lp404
V581194453471260672
p405
aI22
aa(lp406
V581194671902195712
p407
aI22
aa(lp408
V581197425366401024
p409
aI26
aa(lp410
V581198171176480768
p411
aI27
aa(lp412
V581198557966897153
p413
aI28
aa(lp414
V581199670430449664
p415
aI29
aa(lp416
V581064927101628416
p417
aI18
aa(lp418
V581064371289239552
p419
aI16
aa(lp420
V580478159126175745
p421
aI11
aa(lp422
V580478459413209088
p423
aI33
aa(lp424
V580477423487180800
p425
aI6
aa(lp426
V580327254468603904
p427
aI4
aa(lp428
V580327990845927425
p429
aI36
aa(lp430
V580327559193346048
p431
aI36
aa(lp432
V580326199324463104
p433
aI0
aa(lp434
V580326880169082881
p435
aI39
aa(lp436
V580325250996518913
p437
aI0
aa(lp438
V580325766946230272
p439
aI0
aaa(lp440
(lp441
V580333763512705025
p442
aI0
aa(lp443
V580335777923510272
p444
aI0
aa(lp445
V580335772596858880
p446
aI0
aa(lp447
V580336383480446976
p448
aI0
aa(lp449
V580334382180929536
p450
aI0
aa(lp451
V580336622811500545
p452
aI0
aa(lp453
V580334573264842752
p454
aI0
aa(lp455
V580337014328942592
p456
aI0
aa(lp457
V580336417391439872
p458
aI0
aa(lp459
V580397833548861442
p460
aI8
aa(lp461
V580336658073141249
p462
aI8
aa(lp463
V580337070595403777
p464
aI8
aa(lp465
V580337921598816256
p466
aI8
aa(lp467
V580805320068325377
p468
aI8
aa(lp469
V580336915880116224
p470
aI8
aa(lp471
V580337657777156097
p472
aI8
aa(lp473
V580353553383968769
p474
aI8
aa(lp475
V580361704065859584
p476
aI8
aa(lp477
V580337060864638976
p478
aI0
aa(lp479
V580336127162392576
p480
aI0
aa(lp481
V580334624657768448
p482
aI0
aa(lp483
V580335177785696256
p484
aI0
aa(lp485
V580335134806790144
p486
aI0
aa(lp487
V580335643424743424
p488
aI22
aa(lp489
V580333870626766848
p490
aI0
aaa(lp491
(lp492
V581047170637381632
p493
aI0
aa(lp494
V581050539003277312
p495
aI0
aa(lp496
V581054221086285824
p497
aI0
aa(lp498
V581049811757076480
p499
aI0
aaa(lp500
(lp501
V580322453928431617
p502
aI0
aa(lp503
V580390811197665280
p504
aI0
aa(lp505
V581219554912800768
p506
aI0
aaa(lp507
(lp508
V580331561398108160
p509
aI0
aa(lp510
V580333696596738050
p511
aI0
aa(lp512
V580332179072393217
p513
aI0
aa(lp514
V580332722306084864
p515
aI0
aa(lp516
V580345889744654337
p517
aI0
aa(lp518
V580346271547920384
p519
aI4
aa(lp520
V580348442318381056
p521
aI5
aa(lp522
V580332597919776768
p523
aI0
aa(lp524
V580334044774326272
p525
aI7
aa(lp526
V580338850951639044
p527
aI8
aa(lp528
V580339782213083137
p529
aI9
aa(lp530
V580333630913933312
p531
aI0
aa(lp532
V580338878915190784
p533
aI0
aaa(lp534
(lp535
V581293286268129280
p536
aI0
aa(lp537
V581314247738687488
p538
aI0
aa(lp539
V581438559401410560
p540
aI0
aa(lp541
V581440515834413056
p542
aI0
aa(lp543
V581313996940296192
p544
aI0
aa(lp545
V581295555281747968
p546
aI0
aa(lp547
V581295807346900992
p548
aI0
aa(lp549
V581298086246395904
p550
aI6
aa(lp551
V581299394340880384
p552
aI7
aa(lp553
V581307953950527488
p554
aI7
aa(lp555
V581300449237667840
p556
aI7
aa(lp557
V581420137724530688
p558
aI10
aa(lp559
V581454776740773888
p560
aI11
aa(lp561
V581333436473868288
p562
aI7
aa(lp563
V581299530517192705
p564
aI7
aa(lp565
V581338469496041472
p566
aI0
aa(lp567
V581294486472421376
p568
aI0
aaa(lp569
(lp570
V580371845997682688
p571
aI0
aa(lp572
V580375094784106496
p573
aI0
aa(lp574
V580372594186170368
p575
aI0
aaa(lp576
(lp577
V580324027715063808
p578
aI0
aa(lp579
V580344945610870785
p580
aI0
aa(lp581
V580327894674579456
p582
aI0
aa(lp583
V580333435287265280
p584
aI0
aaa.