(lp0
(lp1
(lp2
V500295393301647360
p3
aI0
aa(lp4
V500308254946516992
p5
aI0
aa(lp6
V500309126438612994
p7
aI1
aa(lp8
V500305055351070722
p9
aI0
aa(lp10
V500316749317697536
p11
aI0
aa(lp12
V500317948393701376
p13
aI4
aa(lp14
V500318081617367040
p15
aI5
aaa(lp16
(lp17
V500394061887709184
p18
aI0
aa(lp19
V500404371608571905
p20
aI0
aa(lp21
V500408940727762944
p22
aI0
aa(lp23
V500404284219879424
p24
aI0
aa(lp25
V500402881737289728
p26
aI0
aa(lp27
V500410061974290433
p28
aI4
aa(lp29
V500411534065950721
p30
aI5
aa(lp31
V500412111369949184
p32
aI6
aa(lp33
V500412280027500544
p34
aI7
aa(lp35
V500411922878328832
p36
aI6
aa(lp37
V500410466213318656
p38
aI5
aa(lp39
V500403075748618240
p40
aI0
aa(lp41
V500409234886889473
p42
aI0
aa(lp43
V500394434438389760
p44
aI0
aa(lp45
V500397151739215872
p46
aI0
aa(lp47
V500409149977407489
p48
aI0
aaa(lp49
(lp50
V500363740311982081
p51
aI0
aa(lp52
V500365432902393859
p53
aI0
aa(lp54
V500364600668602369
p55
aI0
aa(lp56
V500364949215256577
p57
aI0
aa(lp58
V500363869081337856
p59
aI0
aa(lp60
V500365784757968898
p61
aI0
aa(lp62
V500363997779361792
p63
aI0
aa(lp64
V500364933864103937
p65
aI0
aa(lp66
V500366091659784192
p67
aI0
aa(lp68
V500396711127154688
p69
aI0
aa(lp70
V500370900513202176
p71
aI0
aa(lp72
V500365021965455360
p73
aI0
aa(lp74
V500369014195896320
p75
aI0
aa(lp76
V500368681806073856
p77
aI0
aa(lp78
V500387022318874624
p79
aI0
aa(lp80
V500373718464757760
p81
aI0
aa(lp82
V500368855051804672
p83
aI0
aa(lp84
V500391119566282753
p85
aI0
aa(lp86
V500366118234882048
p87
aI0
aa(lp88
V500368731764424704
p89
aI0
aaa(lp90
(lp91
V500288349924782080
p92
aI0
aa(lp93
V500288465355816960
p94
aI0
aa(lp95
V500289001446588417
p96
aI0
aa(lp97
V500289655829712896
p98
aI2
aa(lp99
V500289931097296897
p100
aI0
aa(lp101
V500288555600871424
p102
aI0
aa(lp103
V500288663931334656
p104
aI0
aa(lp105
V500294596707254272
p106
aI0
aa(lp107
V500289400572768257
p108
aI0
aa(lp109
V500298046882988032
p110
aI0
aa(lp111
V500289681062248451
p112
aI0
aa(lp113
V500290573182730240
p114
aI10
aa(lp115
V500290674957504513
p116
aI11
aa(lp117
V500290845166542850
p118
aI12
aaa(lp119
(lp120
V500298752469770240
p121
aI0
aa(lp122
V500321978373656577
p123
aI0
aa(lp124
V500310561994047488
p125
aI0
aa(lp126
V500322402656878592
p127
aI2
aa(lp128
V500322663823589376
p129
aI3
aa(lp130
V500323069836410880
p131
aI4
aa(lp132
V500323219556298753
p133
aI5
aa(lp134
V500323874140323840
p135
aI6
aa(lp136
V500324239652958208
p137
aI7
aa(lp138
V500387816015007744
p139
aI4
aa(lp140
V500442407830581248
p141
aI9
aa(lp142
V500451964283789313
p143
aI10
aa(lp144
V500452111692595201
p145
aI11
aa(lp146
V500454975185879040
p147
aI12
aa(lp148
V500322539814789121
p149
aI2
aa(lp150
V500322805083553792
p151
aI14
aa(lp152
V500323593805660160
p153
aI15
aa(lp154
V500323822730747904
p155
aI16
aa(lp156
V500324120689930241
p157
aI17
aa(lp158
V500324396285054976
p159
aI18
aa(lp160
V500324564237578240
p161
aI19
aa(lp162
V500324845427916800
p163
aI20
aa(lp164
V500322928060563457
p165
aI14
aa(lp166
V500303039589122049
p167
aI0
aa(lp168
V500311633458364416
p169
aI0
aa(lp170
V500301979336593408
p171
aI0
aa(lp172
V500299301415702528
p173
aI0
aa(lp174
V500310617686040576
p175
aI26
aa(lp176
V500300692285038592
p177
aI0
aa(lp178
V500453921999970304
p179
aI0
aa(lp180
V500307435668930561
p181
aI0
aa(lp182
V500444523039039488
p183
aI0
aa(lp184
V500301171395809281
p185
aI0
aa(lp186
V500299923980824576
p187
aI0
aa(lp188
V500300182844878848
p189
aI33
aa(lp190
V500300699738316800
p191
aI34
aa(lp192
V500356831542538240
p193
aI0
aa(lp194
V500299435793219584
p195
aI0
aa(lp196
V500397966071693312
p197
aI37
aa(lp198
V500413925020934145
p199
aI38
aa(lp200
V500431611364524033
p201
aI39
aa(lp202
V500439803465592832
p203
aI40
aa(lp204
V500486955692728320
p205
aI41
aa(lp206
V500488971080962048
p207
aI42
aaa(lp208
(lp209
V499366666300846081
p210
aI0
aa(lp211
V499628894714986497
p212
aI0
aa(lp213
V499369499662245888
p214
aI0
aa(lp215
V499435388508073984
p216
aI0
aa(lp217
V499447049440743424
p218
aI0
aa(lp219
V499371059385098240
p220
aI0
aa(lp221
V499373428592611328
p222
aI0
aa(lp223
V500473967509909504
p224
aI0
aa(lp225
V499372044593930240
p226
aI0
aa(lp227
V499374160121184257
p228
aI0
aa(lp229
V499369079288123392
p230
aI0
aa(lp231
V499367096875114497
p232
aI0
aa(lp233
V499368327530414080
p234
aI0
aa(lp235
V499918462295490560
p236
aI0
aa(lp237
V499378276671176704
p238
aI0
aaa(lp239
(lp240
V500290456845299714
p241
aI0
aa(lp242
V500298114675539968
p243
aI0
aa(lp244
V500297879831838720
p245
aI0
aa(lp246
V500291870736412672
p247
aI0
aa(lp248
V500297423047376897
p249
aI3
aa(lp250
V500298800947142656
p251
aI4
aa(lp252
V500306310450003968
p253
aI4
aa(lp254
V500306749090324480
p255
aI6
aa(lp256
V500306603233386496
p257
aI6
aa(lp258
V500306929412210688
p259
aI6
aa(lp260
V500305543802519553
p261
aI0
aa(lp262
V500297571856678912
p263
aI0
aa(lp264
V500305311647817729
p265
aI11
aa(lp266
V500308754194497537
p267
aI0
aa(lp268
V500294975481843712
p269
aI0
aa(lp270
V500303660220706821
p271
aI14
aa(lp272
V500306606597636096
p273
aI15
aa(lp274
V500307149398876160
p275
aI16
aa(lp276
V500303314106720256
p277
aI0
aa(lp278
V500291600501600258
p279
aI0
aa(lp280
V500299687090335744
p281
aI0
aa(lp282
V500299937771692032
p283
aI20
aa(lp284
V500293253510754304
p285
aI0
aa(lp286
V500303419027247104
p287
aI22
aa(lp288
V500303880820117504
p289
aI23
aa(lp290
V500304092296912897
p291
aI24
aa(lp292
V500304836798472192
p293
aI25
aa(lp294
V500293362055151616
p295
aI0
aa(lp296
V500297973905895424
p297
aI0
aa(lp298
V500297800354377730
p299
aI0
aa(lp300
V500298324365160450
p301
aI29
aa(lp302
V500298472785182720
p303
aI30
aa(lp304
V500298596772622336
p305
aI31
aa(lp306
V500297602231853057
p307
aI0
aa(lp308
V500297717432594432
p309
aI33
aa(lp310
V500297910047604736
p311
aI34
aa(lp312
V500297784134606849
p313
aI33
aaa(lp314
(lp315
V500319801344929795
p316
aI0
aa(lp317
V500320311997640704
p318
aI0
aa(lp319
V500325331442892800
p320
aI1
aa(lp321
V500350142122577920
p322
aI1
aa(lp323
V500331349421879297
p324
aI0
aa(lp325
V501466955564740609
p326
aI0
aa(lp327
V500348857705041920
p328
aI0
aa(lp329
V501469191216840704
p330
aI0
aa(lp331
V500321279208341504
p332
aI0
aa(lp333
V500326334464544769
p334
aI0
aa(lp335
V500341401583104000
p336
aI9
aa(lp337
V500448504058093568
p338
aI10
aa(lp339
V500337293375197184
p340
aI0
aa(lp341
V500322303717441536
p342
aI0
aa(lp343
V500320354892795904
p344
aI0
aa(lp345
V500325872583200770
p346
aI14
aa(lp347
V500322285883228162
p348
aI14
aaa(lp349
(lp350
V499530130487017472
p351
aI0
aa(lp352
V499533751513518080
p353
aI0
aa(lp354
V499538310986219520
p355
aI0
aa(lp356
V499610176518119424
p357
aI0
aa(lp358
V499623513435947009
p359
aI0
aa(lp360
V499533285387960321
p361
aI0
aa(lp362
V499532079873261568
p363
aI0
aa(lp364
V499532400293335040
p365
aI6
aa(lp366
V499533162028883969
p367
aI7
aa(lp368
V499534240254803968
p369
aI8
aa(lp370
V499532679059374081
p371
aI0
aa(lp372
V499532946412687360
p373
aI10
aa(lp374
V499533154219474944
p375
aI11
aa(lp376
V499533764088049664
p377
aI10
aa(lp378
V499534535764480000
p379
aI13
aa(lp380
V499534297662246913
p381
aI13
aa(lp382
V499551016300593152
p383
aI0
aa(lp384
V499531355651579905
p385
aI0
aa(lp386
V499531869189586945
p387
aI0
aa(lp388
V499536346210652161
p389
aI18
aa(lp390
V499537282177978368
p391
aI19
aa(lp392
V499538648023719936
p393
aI20
aa(lp394
V499538983215706112
p395
aI21
aa(lp396
V499685061956882433
p397
aI0
aa(lp398
V510533977086500866
p399
aI0
aaa(lp400
(lp401
V500327120770301952
p402
aI0
aa(lp403
V500491967097479168
p404
aI0
aa(lp405
V500329670232256512
p406
aI0
aa(lp407
V500328537316794368
p408
aI0
aa(lp409
V500327896670830592
p410
aI0
aa(lp411
V500341555061075968
p412
aI0
aa(lp413
V500327577031307265
p414
aI0
aa(lp415
V500327538627837954
p416
aI0
aa(lp417
V500327622954717184
p418
aI0
aa(lp419
V500330092208218114
p420
aI0
aa(lp421
V500327721747349506
p422
aI0
aa(lp423
V500332078513520640
p424
aI0
aa(lp425
V500340654841798656
p426
aI0
aa(lp427
V500327508706074624
p428
aI0
aa(lp429
V500345176783458305
p430
aI13
aa(lp431
V500345821272215553
p432
aI14
aa(lp433
V500329247148609536
p434
aI0
aa(lp435
V500355260079415296
p436
aI0
aa(lp437
V500489624851324929
p438
aI0
aaa(lp439
(lp440
V500391222075076610
p441
aI0
aa(lp442
V500503447544680448
p443
aI0
aa(lp444
V500393155066626048
p445
aI0
aa(lp446
V500394093420494849
p447
aI2
aa(lp448
V500394517733068801
p449
aI3
aa(lp450
V500395293675122688
p451
aI4
aa(lp452
V500395008592465921
p453
aI4
aa(lp454
V500395125802278912
p455
aI4
aa(lp456
V500395581429526528
p457
aI7
aa(lp458
V500395926595596288
p459
aI8
aa(lp460
V500396139305517057
p461
aI8
aa(lp462
V500396253327687680
p463
aI10
aa(lp464
V500396405614460928
p465
aI11
aa(lp466
V500398468503207936
p467
aI12
aa(lp468
V500401161732886529
p469
aI13
aa(lp470
V500394000550215680
p471
aI2
aa(lp472
V500393880462692353
p473
aI2
aa(lp474
V500587418584907776
p475
aI16
aa(lp476
V500393935223533569
p477
aI0
aa(lp478
V500418076723396608
p479
aI0
aa(lp480
V500392059832770560
p481
aI0
aa(lp482
V500393643815882752
p483
aI20
aa(lp484
V500392623107223552
p485
aI20
aa(lp486
V500392872856649728
p487
aI22
aa(lp488
V500393535263481858
p489
aI23
aa(lp490
V500394049501544449
p491
aI24
aa(lp492
V500395569760972800
p493
aI25
aa(lp494
V500397394291208192
p495
aI26
aa(lp496
V500397765881774080
p497
aI27
aa(lp498
V500399140572897280
p499
aI28
aa(lp500
V500399362183536640
p501
aI29
aa(lp502
V500399820511535104
p503
aI28
aa(lp504
V500400549117034497
p505
aI31
aa(lp506
V500398907415732227
p507
aI28
aa(lp508
V500399226489434112
p509
aI33
aa(lp510
V500399685232623616
p511
aI28
aa(lp512
V500400188541140992
p513
aI35
aa(lp514
V500395360125464576
p515
aI25
aa(lp516
V500394987373490176
p517
aI25
aa(lp518
V500395253300731906
p519
aI25
aa(lp520
V500401233212227585
p521
aI0
aa(lp522
V500393320032370688
p523
aI0
aa(lp524
V500429451323523073
p525
aI0
aa(lp526
V500392192167645184
p527
aI0
aa(lp528
V500393552946282496
p529
aI43
aa(lp530
V500393982992470016
p531
aI44
aa(lp532
V500397725129531393
p533
aI45
aa(lp534
V500398642167947264
p535
aI46
aa(lp536
V500396146150621185
p537
aI44
aa(lp538
V500727265412386816
p539
aI0
aa(lp540
V500429697587871745
p541
aI0
aa(lp542
V500431996397846528
p543
aI50
aa(lp544
V500417601109889024
p545
aI0
aaa(lp546
(lp547
V500281131057811456
p548
aI0
aa(lp549
V500281613561761793
p550
aI0
aa(lp551
V500281983885672448
p552
aI0
aa(lp553
V500281427494043648
p554
aI0
aa(lp555
V500283804272328704
p556
aI0
aa(lp557
V500282611143413763
p558
aI0
aa(lp559
V500283799708499969
p560
aI0
aa(lp561
V500281311852916736
p562
aI0
aa(lp563
V500283406962663424
p564
aI0
aa(lp565
V500281475141357568
p566
aI0
aa(lp567
V500281337694416896
p568
aI0
aa(lp569
V500283469864239104
p570
aI0
aa(lp571
V500283678170562561
p572
aI0
aa(lp573
V500283216847446016
p574
aI0
aa(lp575
V500282657125572608
p576
aI0
aa(lp577
V500282369023430656
p578
aI0
aa(lp579
V500283133674405888
p580
aI15
aa(lp581
V500295061595521024
p582
aI15
aa(lp583
V500308342599061504
p584
aI17
aa(lp585
V500312191090712577
p586
aI18
aa(lp587
V500323392864919552
p588
aI19
aaa(lp589
(lp590
V500327106824245249
p591
aI0
aa(lp592
V500332729008160768
p593
aI0
aa(lp594
V500338745359753216
p595
aI0
aa(lp596
V500328018087514112
p597
aI0
aa(lp598
V500328023129075712
p599
aI0
aa(lp600
V500327704399331331
p601
aI0
aa(lp602
V500328058621280256
p603
aI0
aa(lp604
V500327239419195392
p605
aI0
aaa(lp606
(lp607
V499612545909415938
p608
aI0
aa(lp609
V499991648232017920
p610
aI0
aa(lp611
V499755375642816512
p612
aI0
aa(lp613
V499641023950512128
p614
aI0
aa(lp615
V499613890171662336
p616
aI0
aa(lp617
V499689772928204800
p618
aI0
aa(lp619
V499691100370911232
p620
aI5
aa(lp621
V499691339995709440
p622
aI5
aa(lp623
V499694054226284544
p624
aI7
aa(lp625
V499690552821284864
p626
aI5
aa(lp627
V499691687326007296
p628
aI5
aa(lp629
V499693411130429443
p630
aI10
aa(lp631
V499692380296318976
p632
aI10
aa(lp633
V499692833121783809
p634
aI12
aa(lp635
V499620018951561217
p636
aI0
aa(lp637
V499759387657764864
p638
aI0
aa(lp639
V499689337370324992
p640
aI0
aa(lp641
V499773548202688512
p642
aI0
aa(lp643
V499692801274441729
p644
aI0
aa(lp645
V499612667430977536
p646
aI0
aa(lp647
V499612832363581440
p648
aI0
aa(lp649
V499752447930155008
p650
aI0
aa(lp651
V499613561044598785
p652
aI0
aa(lp653
V499688811300151297
p654
aI0
aa(lp655
V499921932645433344
p656
aI0
aa(lp657
V499990307291664384
p658
aI0
aa(lp659
V499919010625253376
p660
aI0
aa(lp661
V499619405576544256
p662
aI0
aaa(lp663
(lp664
V500286058664579072
p665
aI0
aa(lp666
V500288040963964928
p667
aI0
aa(lp668
V500293069947015168
p669
aI0
aa(lp670
V500289033650446338
p671
aI0
aa(lp672
V500287202124103680
p673
aI0
aa(lp674
V500434967177224193
p675
aI4
aa(lp676
V500588486664409088
p677
aI5
aa(lp678
V500659341801046017
p679
aI6
aa(lp680
V500661909751103488
p681
aI7
aa(lp682
V500659434558087168
p683
aI6
aa(lp684
V500663231338536960
p685
aI9
aa(lp686
V500288489678577664
p687
aI0
aa(lp688
V500286680381665282
p689
aI0
aa(lp690
V500294827351621632
p691
aI12
aa(lp692
V500297053990158336
p693
aI13
aa(lp694
V500288027705741313
p695
aI0
aa(lp696
V500295998753611777
p697
aI15
aa(lp698
V500287325621198848
p699
aI0
aa(lp700
V500295232399757312
p701
aI17
aa(lp702
V500295397886025729
p703
aI18
aa(lp704
V500287728064688130
p705
aI0
aa(lp706
V500301215461548032
p707
aI0
aa(lp708
V500286538878427136
p709
aI0
aa(lp710
V500298076914221056
p711
aI22
aa(lp712
V500297133841731585
p713
aI0
aa(lp714
V500297826510057474
p715
aI24
aa(lp716
V500289557624287234
p717
aI0
aa(lp718
V500290943849725952
p719
aI0
aa(lp720
V500290288221687808
p721
aI0
aa(lp722
V500287363361546240
p723
aI0
aa(lp724
V500289895706144768
p725
aI0
aa(lp726
V500288302100918272
p727
aI0
aa(lp728
V500303315843170305
p729
aI0
aa(lp730
V500288271650684928
p731
aI0
aa(lp732
V500289420730597377
p733
aI33
aa(lp734
V500289645301989377
p735
aI34
aa(lp736
V500290340738592769
p737
aI35
aa(lp738
V500298509870837760
p739
aI36
aa(lp740
V500298645494067200
p741
aI37
aa(lp742
V500298817531432961
p743
aI38
aa(lp744
V500300092054974464
p745
aI39
aa(lp746
V500300308145528832
p747
aI40
aa(lp748
V500300875844583424
p749
aI41
aa(lp750
V500301417869869059
p751
aI40
aa(lp752
V500290579075715072
p753
aI36
aa(lp754
V500290809678536705
p755
aI44
aa(lp756
V500289833651429376
p757
aI35
aa(lp758
V500301956989349888
p759
aI46
aa(lp760
V500315069142405120
p761
aI47
aa(lp762
V500316980130619392
p763
aI48
aa(lp764
V500367357198745600
p765
aI49
aa(lp766
V500317610228342784
p767
aI48
aa(lp768
V500317606717693952
p769
aI48
aa(lp770
V500316855157137408
p771
aI48
aa(lp772
V500302249974059008
p773
aI47
aa(lp774
V500290256928014336
p775
aI46
aa(lp776
V500290490382942209
p777
aI55
aa(lp778
V500290781178261504
p779
aI56
aa(lp780
V500289666290294784
p781
aI0
aaa(lp782
(lp783
V500279160795721728
p784
aI0
aa(lp785
V500281521841139712
p786
aI0
aa(lp787
V500289773525671936
p788
aI1
aa(lp789
V500292093487886336
p790
aI2
aa(lp791
V500291010010701825
p792
aI2
aa(lp793
V500292264909107200
p794
aI4
aa(lp795
V500294835559866371
p796
aI5
aa(lp797
V500342630145081344
p798
aI6
aa(lp799
V500292158344417280
p800
aI4
aa(lp801
V500292755885531138
p802
aI8
aa(lp803
V500293402890469377
p804
aI9
aa(lp805
V500340428701712384
p806
aI10
aa(lp807
V500294076273811459
p808
aI10
aa(lp809
V500338566229401600
p810
aI12
aa(lp811
V500344082804518913
p812
aI13
aa(lp813
V500345170295271425
p814
aI14
aa(lp815
V500345332811956224
p816
aI15
aa(lp817
V500344847661006848
p818
aI14
aa(lp819
V500345409500639232
p820
aI17
aa(lp821
V500454080796704768
p822
aI4
aa(lp823
V500286604129619969
p824
aI0
aa(lp825
V500287184847798272
p826
aI20
aa(lp827
V500287454575099904
p828
aI21
aa(lp829
V500325414917505024
p830
aI0
aa(lp831
V500306362090680320
p832
aI0
aa(lp833
V500311345665810433
p834
aI24
aa(lp835
V500311804518871040
p836
aI25
aa(lp837
V500313191524466692
p838
aI26
aa(lp839
V500313643435954177
p840
aI27
aa(lp841
V500310835219431424
p842
aI24
aa(lp843
V500311033110855680
p844
aI29
aa(lp845
V500312772866211841
p846
aI30
aa(lp847
V500299354499198976
p848
aI0
aa(lp849
V500301270532370433
p850
aI32
aa(lp851
V500304234404130816
p852
aI33
aa(lp853
V500317100704288768
p854
aI33
aa(lp855
V500319394325479424
p856
aI35
aa(lp857
V500320115632918531
p858
aI36
aa(lp859
V500320061425729536
p860
aI36
aa(lp861
V500568852959608833
p862
aI36
aa(lp863
V500319932585111553
p864
aI36
aa(lp865
V500303942040186880
p866
aI33
aa(lp867
V500304493146157056
p868
aI41
aa(lp869
V500313282184761344
p870
aI33
aa(lp871
V500303330825216000
p872
aI33
aa(lp873
V500303993805889537
p874
aI44
aa(lp875
V500317233047142401
p876
aI33
aa(lp877
V500304668699156481
p878
aI33
aa(lp879
V501384325913665536
p880
aI47
aa(lp881
V500301494193627136
p882
aI33
aa(lp883
V500304544257949696
p884
aI33
aa(lp885
V500300300897751040
p886
aI32
aa(lp887
V500575438524407809
p888
aI51
aa(lp889
V500301396764532736
p890
aI51
aa(lp891
V500302378931716096
p892
aI53
aa(lp893
V500302889429241856
p894
aI54
aa(lp895
V500304014765199360
p896
aI55
aa(lp897
V500938515367342080
p898
aI56
aa(lp899
V500939702565105664
p900
aI57
aa(lp901
V500964275373244416
p902
aI58
aa(lp903
V500930761818509313
p904
aI56
aa(lp905
V500961800868098049
p906
aI60
aa(lp907
V501760642928635904
p908
aI61
aa(lp909
V501761634076217345
p910
aI62
aa(lp911
V501295330210885632
p912
aI61
aa(lp913
V501336276285788160
p914
aI64
aa(lp915
V501667615350083584
p916
aI65
aa(lp917
V501714124771168257
p918
aI66
aa(lp919
V501720931803602944
p920
aI66
aa(lp921
V500575842268098560
p922
aI55
aa(lp923
V500303952391331843
p924
aI55
aa(lp925
V500304228653346816
p926
aI70
aa(lp927
V500304474616119296
p928
aI70
aa(lp929
V500571622303367168
p930
aI54
aa(lp931
V500308563269783552
p932
aI0
aa(lp933
V500279534420525056
p934
aI0
aa(lp935
V500288878578642944
p936
aI0
aa(lp937
V500294892606590977
p938
aI76
aa(lp939
V500295747766468608
p940
aI77
aa(lp941
V500298745301729282
p942
aI0
aa(lp943
V500311553183588352
p944
aI0
aa(lp945
V500294985376608256
p946
aI0
aa(lp947
V500298040511451136
p948
aI81
aa(lp949
V500301957396193280
p950
aI82
aa(lp951
V500303144429973508
p952
aI83
aa(lp953
V500307074589659137
p954
aI84
aa(lp955
V500308085143912449
p956
aI85
aa(lp957
V500313676654473217
p958
aI85
aa(lp959
V500309759367856129
p960
aI0
aa(lp961
V500310926906490883
p962
aI88
aa(lp963
V500292183438925824
p964
aI0
aa(lp965
V500574997921136640
p966
aI0
aa(lp967
V500302395042439168
p968
aI0
aaa(lp969
(lp970
V500270780832174080
p971
aI0
aa(lp972
V500278197447966722
p973
aI0
aa(lp974
V500271834416574464
p975
aI0
aa(lp976
V500313330930966529
p977
aI0
aa(lp978
V500272785428860928
p979
aI0
aa(lp980
V500296531036364800
p981
aI0
aa(lp982
V500273321213456385
p983
aI0
aa(lp984
V500277729863159808
p985
aI0
aa(lp986
V500271679273054208
p987
aI0
aa(lp988
V500282815796494337
p989
aI0
aa(lp990
V500274739537924096
p991
aI0
aa(lp992
V500279384075685888
p993
aI0
aa(lp994
V500273884479098880
p995
aI0
aa(lp996
V500277616587587584
p997
aI0
aa(lp998
V500274502652411904
p999
aI0
aa(lp1000
V500274134094319618
p1001
aI0
aaa(lp1002
(lp1003
V500294803402137600
p1004
aI0
aa(lp1005
V500295655458230272
p1006
aI0
aa(lp1007
V500296225678045184
p1008
aI0
aa(lp1009
V500297916553371648
p1010
aI2
aa(lp1011
V500299170993819649
p1012
aI3
aa(lp1013
V500299463135858688
p1014
aI4
aa(lp1015
V500299040655806465
p1016
aI3
aa(lp1017
V500297035879563265
p1018
aI0
aa(lp1019
V500298524953939969
p1020
aI0
aa(lp1021
V500296225405415424
p1022
aI0
aa(lp1023
V500299816971546624
p1024
aI0
aa(lp1025
V500299469372420098
p1026
aI0
aa(lp1027
V500295446578085889
p1028
aI0
aa(lp1029
V500297358966808576
p1030
aI0
aa(lp1031
V500295853186510848
p1032
aI0
aa(lp1033
V500295308572893184
p1034
aI0
aa(lp1035
V500299799267389440
p1036
aI0
aa(lp1037
V500295400696586240
p1038
aI0
aa(lp1039
V500298399095074816
p1040
aI0
aaa(lp1041
(lp1042
V500278045597368320
p1043
aI0
aa(lp1044
V500281457391435777
p1045
aI0
aa(lp1046
V500278540391440385
p1047
aI0
aa(lp1048
V500338161370034177
p1049
aI0
aa(lp1050
V500280315429289985
p1051
aI0
aa(lp1052
V500278685698519041
p1053
aI0
aa(lp1054
V500281543823458304
p1055
aI0
aa(lp1056
V500312413930291201
p1057
aI0
aa(lp1058
V500280986845073408
p1059
aI0
aa(lp1060
V500278888216268800
p1061
aI0
aa(lp1062
V500335190146056192
p1063
aI0
aa(lp1064
V500289844728565760
p1065
aI0
aa(lp1066
V500292092032471040
p1067
aI11
aaa(lp1068
(lp1069
V500258409988763649
p1070
aI0
aa(lp1071
V500258778122420225
p1072
aI0
aa(lp1073
V500258777057480706
p1074
aI0
aa(lp1075
V500270734934282240
p1076
aI0
aa(lp1077
V500259232764411904
p1078
aI0
aa(lp1079
V500259034755526656
p1080
aI0
aa(lp1081
V500260909994885120
p1082
aI0
aa(lp1083
V500270212198174720
p1084
aI0
aaa(lp1085
(lp1086
V500377906305327104
p1087
aI0
aa(lp1088
V500393198603489280
p1089
aI0
aa(lp1090
V500402817065320448
p1091
aI0
aa(lp1092
V500544598268063744
p1093
aI0
aa(lp1094
V500419588199571456
p1095
aI0
aa(lp1096
V500463618480037889
p1097
aI0
aa(lp1098
V500557666528542720
p1099
aI0
aa(lp1100
V500379811974774784
p1101
aI0
aa(lp1102
V500394742966808576
p1103
aI7
aa(lp1104
V500404172140085248
p1105
aI8
aa(lp1106
V500415275884244992
p1107
aI9
aa(lp1108
V500379221504442370
p1109
aI0
aa(lp1110
V500379473326665728
p1111
aI11
aa(lp1112
V500382569746030592
p1113
aI12
aa(lp1114
V500387049543725056
p1115
aI12
aa(lp1116
V500379240299122690
p1117
aI0
aaa(lp1118
(lp1119
V500332933098385408
p1120
aI0
aa(lp1121
V500344751934406656
p1122
aI0
aa(lp1123
V500345018926645250
p1124
aI1
aa(lp1125
V500345416320581632
p1126
aI2
aa(lp1127
V500337288564723712
p1128
aI0
aa(lp1129
V500338356387999745
p1130
aI0
aa(lp1131
V500338593391341568
p1132
aI5
aa(lp1133
V500343675575361536
p1134
aI0
aa(lp1135
V500344654319988741
p1136
aI7
aaa(lp1137
(lp1138
V500371149713178625
p1139
aI0
aa(lp1140
V500371613087326209
p1141
aI0
aa(lp1142
V500613335541239809
p1143
aI1
aa(lp1144
V500472043205173248
p1145
aI0
aa(lp1146
V500371565641756673
p1147
aI0
aa(lp1148
V500619773873770496
p1149
aI4
aa(lp1150
V500487734914723840
p1151
aI0
aa(lp1152
V500477494307618816
p1153
aI0
aa(lp1154
V500516393305907200
p1155
aI0
aa(lp1156
V500382019109810176
p1157
aI0
aa(lp1158
V500374875253391360
p1159
aI0
aa(lp1160
V500371968831787009
p1161
aI0
aa(lp1162
V500371435127185409
p1163
aI0
aa(lp1164
V500372596832350208
p1165
aI12
aa(lp1166
V500375314128572416
p1167
aI0
aa(lp1168
V500374020744019969
p1169
aI0
aa(lp1170
V500372355521462272
p1171
aI0
aa(lp1172
V500371534913871874
p1173
aI0
aa(lp1174
V500371896295120896
p1175
aI0
aa(lp1176
V500372393890557952
p1177
aI0
aa(lp1178
V500498433279811585
p1179
aI0
aaa(lp1180
(lp1181
V500354773133299713
p1182
aI0
aa(lp1183
V500356143739576320
p1184
aI0
aa(lp1185
V500355119183982595
p1186
aI0
aa(lp1187
V500356467548250112
p1188
aI0
aa(lp1189
V500354972366942210
p1190
aI0
aa(lp1191
V500386459468439552
p1192
aI0
aa(lp1193
V500365775128248320
p1194
aI0
aa(lp1195
V500378624113909760
p1196
aI6
aa(lp1197
V500355274352234496
p1198
aI0
aa(lp1199
V500357119804444673
p1200
aI0
aa(lp1201
V500356419921510400
p1202
aI0
aa(lp1203
V500357628384788480
p1204
aI10
aa(lp1205
V500356749342560256
p1206
aI0
aa(lp1207
V500356990917681152
p1208
aI0
aa(lp1209
V500355191645171712
p1210
aI0
aa(lp1211
V500355631627632641
p1212
aI14
aa(lp1213
V500356049766219777
p1214
aI15
aa(lp1215
V500356193731481600
p1216
aI16
aa(lp1217
V500357475762466816
p1218
aI0
aa(lp1219
V500355126666600448
p1220
aI0
aa(lp1221
V500355125517361153
p1222
aI0
aa(lp1223
V500363247355457536
p1224
aI0
aa(lp1225
V500358331073318912
p1226
aI0
aa(lp1227
V500367331424751616
p1228
aI0
aa(lp1229
V500382451324440576
p1230
aI0
aaa(lp1231
(lp1232
V500363126294863876
p1233
aI0
aa(lp1234
V500383873482891264
p1235
aI0
aa(lp1236
V500385377656377346
p1237
aI0
aa(lp1238
V500363420689248256
p1239
aI0
aa(lp1240
V500363941114298368
p1241
aI3
aa(lp1242
V500387635429642240
p1243
aI0
aa(lp1244
V500382947229581312
p1245
aI0
aa(lp1246
V500364276281122817
p1247
aI0
aaa(lp1248
(lp1249
V500341884678836224
p1250
aI0
aa(lp1251
V500346621801295872
p1252
aI0
aa(lp1253
V500343086988677120
p1254
aI0
aa(lp1255
V500342822059646976
p1256
aI0
aa(lp1257
V500405557602553857
p1258
aI0
aa(lp1259
V500386248284831746
p1260
aI0
aa(lp1261
V500460605686677504
p1262
aI0
aa(lp1263
V500489755373862913
p1264
aI6
aa(lp1265
V500344330046152705
p1266
aI0
aa(lp1267
V500349107672580096
p1268
aI0
aaa(lp1269
(lp1270
V500319675797209088
p1271
aI0
aa(lp1272
V500341644873723905
p1273
aI0
aa(lp1274
V500348187656601600
p1275
aI0
aa(lp1276
V500574128609312769
p1277
aI0
aa(lp1278
V500714300046974976
p1279
aI0
aa(lp1280
V500715098583736320
p1281
aI4
aa(lp1282
V500348247677104128
p1283
aI0
aa(lp1284
V500340602236833792
p1285
aI0
aa(lp1286
V500322693460131841
p1287
aI0
aa(lp1288
V500714325472866304
p1289
aI0
aa(lp1290
V500320165142495232
p1291
aI0
aaa(lp1292
(lp1293
V500389488217309184
p1294
aI0
aa(lp1295
V500472734573658112
p1296
aI0
aa(lp1297
V500476059880816640
p1298
aI1
aa(lp1299
V500478671451586560
p1300
aI2
aa(lp1301
V500478509366915072
p1302
aI2
aa(lp1303
V500479810939142144
p1304
aI4
aa(lp1305
V500397204730048512
p1306
aI0
aa(lp1307
V500390996673585152
p1308
aI0
aa(lp1309
V500395032718110721
p1310
aI0
aa(lp1311
V500390975819513856
p1312
aI0
aa(lp1313
V500390676802961408
p1314
aI0
aa(lp1315
V500670228708462592
p1316
aI10
aa(lp1317
V500741014181531648
p1318
aI11
aa(lp1319
V500757739480842242
p1320
aI12
aa(lp1321
V500390919951351808
p1322
aI0
aa(lp1323
V500392686260879360
p1324
aI0
aa(lp1325
V500395857473466368
p1326
aI0
aa(lp1327
V500415611449909249
p1328
aI0
aa(lp1329
V500391396910456832
p1330
aI0
aa(lp1331
V500394428243390465
p1332
aI18
aa(lp1333
V500426909860114432
p1334
aI19
aa(lp1335
V500698984877666304
p1336
aI20
aa(lp1337
V500743658451107842
p1338
aI21
aa(lp1339
V500698326720086017
p1340
aI20
aa(lp1341
V500742011834470401
p1342
aI23
aa(lp1343
V500399953295208448
p1344
aI19
aa(lp1345
V500407103774003201
p1346
aI0
aa(lp1347
V500391932934512640
p1348
aI0
aa(lp1349
V500390396229615617
p1350
aI0
aa(lp1351
V500389858243006464
p1352
aI0
aa(lp1353
V500390243716304896
p1354
aI0
aa(lp1355
V500390764518854656
p1356
aI0
aa(lp1357
V500391055259598849
p1358
aI31
aa(lp1359
V500409272807985152
p1360
aI0
aa(lp1361
V500394092484755458
p1362
aI0
aa(lp1363
V500458931723202561
p1364
aI0
aa(lp1365
V500399784394764288
p1366
aI0
aaa(lp1367
(lp1368
V500378223977721856
p1369
aI0
aa(lp1370
V500379064146751490
p1371
aI0
aa(lp1372
V500379350563569666
p1373
aI0
aa(lp1374
V500385105337417728
p1375
aI0
aa(lp1376
V500396771345199104
p1377
aI0
aa(lp1378
V500378447597039617
p1379
aI0
aa(lp1380
V500387422417338368
p1381
aI0
aa(lp1382
V500379398525431809
p1383
aI0
aa(lp1384
V500378498054500352
p1385
aI0
aa(lp1386
V500381074531569664
p1387
aI0
aa(lp1388
V500379599185125376
p1389
aI0
aa(lp1390
V500380991035559937
p1391
aI0
aa(lp1392
V500382426909392896
p1393
aI11
aa(lp1394
V500384398022565888
p1395
aI12
aa(lp1396
V500385005873680386
p1397
aI13
aa(lp1398
V500385293103820800
p1399
aI0
aa(lp1400
V500379949463654401
p1401
aI0
aaa(lp1402
(lp1403
V499456140044824576
p1404
aI0
aa(lp1405
V499462679736496130
p1406
aI0
aa(lp1407
V499538759076282368
p1408
aI1
aa(lp1409
V499456558125023233
p1410
aI0
aa(lp1411
V499456567990026240
p1412
aI0
aa(lp1413
V499456892595613696
p1414
aI0
aa(lp1415
V499460810704302080
p1416
aI0
aa(lp1417
V499462325544304640
p1418
aI0
aa(lp1419
V499462501998665730
p1420
aI7
aa(lp1421
V499458379555684353
p1422
aI0
aa(lp1423
V499555936969957376
p1424
aI0
aaa(lp1425
(lp1426
V499368931367608320
p1427
aI0
aa(lp1428
V499370756241764352
p1429
aI0
aa(lp1430
V499371743773863936
p1431
aI0
aa(lp1432
V499595867683565568
p1433
aI0
aa(lp1434
V499435529130504192
p1435
aI0
aa(lp1436
V499370418445508608
p1437
aI0
aa(lp1438
V499665170390470658
p1439
aI0
aa(lp1440
V499385991292280832
p1441
aI0
aa(lp1442
V499370097698291713
p1443
aI0
aa(lp1444
V499586042752557056
p1445
aI0
aa(lp1446
V499596052623028224
p1447
aI0
aa(lp1448
V499369111663550465
p1449
aI0
aa(lp1450
V499386359841554432
p1451
aI0
aa(lp1452
V499592983810158594
p1453
aI0
aa(lp1454
V499570907602767872
p1455
aI0
aa(lp1456
V499580023901519872
p1457
aI14
aa(lp1458
V499571259730976771
p1459
aI14
aa(lp1460
V499596317413621760
p1461
aI14
aa(lp1462
V499434486804000768
p1463
aI0
aa(lp1464
V499370209442942976
p1465
aI0
aa(lp1466
V499447388025921536
p1467
aI0
aa(lp1468
V499449102908653570
p1469
aI20
aa(lp1470
V499451011791335424
p1471
aI21
aa(lp1472
V499452664053104642
p1473
aI22
aa(lp1474
V499453449206239232
p1475
aI23
aa(lp1476
V499459462965362688
p1477
aI24
aa(lp1478
V499435314373734400
p1479
aI0
aa(lp1480
V499448422127394816
p1481
aI26
aa(lp1482
V499547493592743936
p1483
aI26
aa(lp1484
V499369781846233088
p1485
aI0
aa(lp1486
V499427932935180289
p1487
aI0
aa(lp1488
V499447660777316352
p1489
aI0
aa(lp1490
V499377993153019904
p1491
aI0
aaa(lp1492
(lp1493
V500280422295937024
p1494
aI0
aa(lp1495
V500284169382289409
p1496
aI0
aa(lp1497
V500284024162488321
p1498
aI0
aa(lp1499
V500289950735400961
p1500
aI0
aa(lp1501
V500290872479449089
p1502
aI3
aa(lp1503
V500291568361041920
p1504
aI4
aa(lp1505
V500281136439103489
p1506
aI0
aa(lp1507
V500283944089423872
p1508
aI0
aa(lp1509
V500281906320404480
p1510
aI0
aa(lp1511
V500283809989132288
p1512
aI0
aa(lp1513
V500283535769759744
p1514
aI0
aa(lp1515
V500282011982913539
p1516
aI0
aa(lp1517
V500282657037496320
p1518
aI0
aaa(lp1519
(lp1520
V498430783699554305
p1521
aI0
aa(lp1522
V498432131669192704
p1523
aI0
aa(lp1524
V498455687836758016
p1525
aI1
aa(lp1526
V498456361286795265
p1527
aI1
aa(lp1528
V498471393538093056
p1529
aI3
aa(lp1530
V498465487635099648
p1531
aI3
aa(lp1532
V498455038701092864
p1533
aI1
aa(lp1534
V498433698149056513
p1535
aI0
aa(lp1536
V498488174923227136
p1537
aI7
aa(lp1538
V498453873124970496
p1539
aI0
aa(lp1540
V498452460881870848
p1541
aI0
aa(lp1542
V498453364045529088
p1543
aI0
aa(lp1544
V498440508256292864
p1545
aI0
aa(lp1546
V498448178270990336
p1547
aI12
aa(lp1548
V498504798971650049
p1549
aI12
aa(lp1550
V498521904396115971
p1551
aI14
aa(lp1552
V498488821197991937
p1553
aI12
aa(lp1554
V498448625643831296
p1555
aI12
aa(lp1556
V498474828278804481
p1557
aI0
aa(lp1558
V498452989930401792
p1559
aI0
aa(lp1560
V498454395248721920
p1561
aI0
aa(lp1562
V498451864112074752
p1563
aI0
aaa(lp1564
(lp1565
V500280838710247424
p1566
aI0
aa(lp1567
V500281916658958337
p1568
aI0
aa(lp1569
V500282527559720960
p1570
aI1
aa(lp1571
V500284352832757760
p1572
aI1
aa(lp1573
V500281948233674753
p1574
aI0
aa(lp1575
V500330934118658048
p1576
aI0
aa(lp1577
V500284524971188224
p1578
aI0
aa(lp1579
V500282616289828864
p1580
aI0
aa(lp1581
V500285250791288832
p1582
aI0
aa(lp1583
V500282169227755520
p1584
aI0
aa(lp1585
V500283973239865345
p1586
aI0
aa(lp1587
V500285361394708480
p1588
aI0
aa(lp1589
V500284160100294657
p1590
aI0
aa(lp1591
V500282025543499777
p1592
aI0
aa(lp1593
V500284241985683456
p1594
aI13
aa(lp1595
V500284857650782209
p1596
aI14
aa(lp1597
V500286345668202497
p1598
aI15
aa(lp1599
V500284605770235904
p1600
aI14
aa(lp1601
V500285261813940224
p1602
aI17
aa(lp1603
V500285798089252865
p1604
aI18
aa(lp1605
V500284153674219521
p1606
aI0
aa(lp1607
V500284990345981952
p1608
aI20
aa(lp1609
V500285795002236928
p1610
aI21
aa(lp1611
V500283424477687808
p1612
aI0
aa(lp1613
V500285527820890113
p1614
aI23
aa(lp1615
V500283123532570624
p1616
aI0
aa(lp1617
V500282726298054656
p1618
aI0
aa(lp1619
V500283003323842560
p1620
aI0
aa(lp1621
V500286677303058432
p1622
aI27
aa(lp1623
V500302632641396736
p1624
aI28
aa(lp1625
V500284989565448192
p1626
aI27
aa(lp1627
V500301459469373440
p1628
aI30
aa(lp1629
V500313005855617024
p1630
aI0
aa(lp1631
V500284023340818433
p1632
aI0
aa(lp1633
V500291543631429632
p1634
aI33
aa(lp1635
V500282858737778688
p1636
aI0
aa(lp1637
V500285916494061568
p1638
aI0
aa(lp1639
V500281906362351616
p1640
aI0
aa(lp1641
V500284767196430337
p1642
aI0
aaa(lp1643
(lp1644
V498280126254428160
p1645
aI0
aa(lp1646
V498282494387843072
p1647
aI0
aa(lp1648
V498323335965868032
p1649
aI0
aa(lp1650
V498280920227794945
p1651
aI0
aa(lp1652
V498283789744103424
p1653
aI0
aaa(lp1654
(lp1655
V500284699546517505
p1656
aI0
aa(lp1657
V500365550351290371
p1658
aI0
aa(lp1659
V500285141370298368
p1660
aI0
aa(lp1661
V500299320676339712
p1662
aI0
aa(lp1663
V500286059885125632
p1664
aI0
aa(lp1665
V500297607475105792
p1666
aI4
aa(lp1667
V500297892511633408
p1668
aI5
aa(lp1669
V500299770968408064
p1670
aI6
aa(lp1671
V500286470150967296
p1672
aI0
aa(lp1673
V500299056934289408
p1674
aI0
aa(lp1675
V500285091394764801
p1676
aI0
aa(lp1677
V500285436527661056
p1678
aI10
aa(lp1679
V500286862255464448
p1680
aI10
aa(lp1681
V500286154944827392
p1682
aI0
aa(lp1683
V500286352605577218
p1684
aI0
aa(lp1685
V500285913906565120
p1686
aI0
aaa(lp1687
(lp1688
V500413818368184321
p1689
aI0
aa(lp1690
V500636418155098113
p1691
aI0
aa(lp1692
V500699046181621760
p1693
aI0
aa(lp1694
V500414334367830017
p1695
aI0
aa(lp1696
V500415249174888448
p1697
aI0
aa(lp1698
V500500740163383299
p1699
aI0
aa(lp1700
V500414759502876673
p1701
aI0
aa(lp1702
V500484108993458176
p1703
aI0
aa(lp1704
V500421425908703233
p1705
aI0
aa(lp1706
V500547984526802944
p1707
aI8
aa(lp1708
V500676678956220416
p1709
aI9
aa(lp1710
V500416260887166976
p1711
aI0
aa(lp1712
V500702640305868801
p1713
aI0
aa(lp1714
V500703436103753728
p1715
aI12
aa(lp1716
V500704429600157696
p1717
aI13
aa(lp1718
V500442891102081024
p1719
aI0
aaa(lp1720
(lp1721
V500378522788315137
p1722
aI0
aa(lp1723
V500378835339476994
p1724
aI0
aa(lp1725
V500381422150905856
p1726
aI0
aa(lp1727
V500418698532777985
p1728
aI0
aa(lp1729
V500400593576669185
p1730
aI0
aa(lp1731
V500386880635301889
p1732
aI0
aa(lp1733
V500383183217913856
p1734
aI0
aa(lp1735
V501757171122839552
p1736
aI6
aa(lp1737
V500396365986689025
p1738
aI0
aa(lp1739
V500406324644294657
p1740
aI0
aa(lp1741
V500386770857758721
p1742
aI0
aa(lp1743
V500418749548093441
p1744
aI0
aa(lp1745
V501756572952166400
p1746
aI11
aa(lp1747
V500382765934604291
p1748
aI0
aa(lp1749
V500383351828525056
p1750
aI0
aa(lp1751
V500383587552985090
p1752
aI14
aa(lp1753
V500384126151573505
p1754
aI15
aa(lp1755
V500384618496163840
p1756
aI16
aa(lp1757
V500383170462621697
p1758
aI0
aa(lp1759
V500393289074638848
p1760
aI0
aa(lp1761
V500378925021687808
p1762
aI0
aaa(lp1763
(lp1764
V500279189405433858
p1765
aI0
aa(lp1766
V500279483732361216
p1767
aI0
aa(lp1768
V500291697167712258
p1769
aI0
aa(lp1770
V500281136816594944
p1771
aI0
aa(lp1772
V500280396010229760
p1773
aI0
aa(lp1774
V500285663271718914
p1775
aI0
aa(lp1776
V500279473187860480
p1777
aI0
aa(lp1778
V500280140560338944
p1779
aI0
aa(lp1780
V500279655925293058
p1781
aI0
aa(lp1782
V500279528225120256
p1783
aI0
aa(lp1784
V500280663065772032
p1785
aI0
aa(lp1786
V500279402635067393
p1787
aI0
aa(lp1788
V500280380910751745
p1789
aI11
aa(lp1790
V500286793632071681
p1791
aI0
aaa(lp1792
(lp1793
V500377145349521411
p1794
aI0
aa(lp1795
V500378287898918912
p1796
aI0
aa(lp1797
V500377411469733889
p1798
aI0
aa(lp1799
V500379602435731456
p1800
aI0
aa(lp1801
V501806249264959488
p1802
aI0
aa(lp1803
V500379102353047553
p1804
aI0
aa(lp1805
V500407313715302400
p1806
aI0
aa(lp1807
V500377826722201600
p1808
aI0
aa(lp1809
V500386677513154560
p1810
aI0
aa(lp1811
V500379220426907648
p1812
aI0
aa(lp1813
V500386025412104192
p1814
aI0
aa(lp1815
V500378499891605505
p1816
aI0
aa(lp1817
V500398105162821634
p1818
aI11
aa(lp1819
V500387065650241536
p1820
aI0
aa(lp1821
V500387923372425216
p1822
aI0
aaa(lp1823
(lp1824
V500347114975944705
p1825
aI0
aa(lp1826
V500347833774374912
p1827
aI0
aa(lp1828
V500350502690115584
p1829
aI1
aa(lp1830
V500382101930143745
p1831
aI1
aa(lp1832
V500382921476145152
p1833
aI3
aa(lp1834
V500347712764518400
p1835
aI0
aa(lp1836
V500348911404728320
p1837
aI0
aa(lp1838
V500348806480035841
p1839
aI0
aa(lp1840
V500352847351775234
p1841
aI7
aa(lp1842
V500355271332757504
p1843
aI8
aa(lp1844
V500356093801795585
p1845
aI9
aa(lp1846
V500356692560072704
p1847
aI10
aa(lp1848
V500357394845560835
p1849
aI11
aa(lp1850
V500357701827039232
p1851
aI12
aa(lp1852
V500358464325947393
p1853
aI13
aa(lp1854
V500359435911716864
p1855
aI14
aa(lp1856
V500360127522693120
p1857
aI15
aa(lp1858
V500358008979722243
p1859
aI11
aa(lp1860
V500358715992969218
p1861
aI17
aa(lp1862
V500359448531980288
p1863
aI18
aa(lp1864
V500359336359518208
p1865
aI18
aa(lp1866
V500357862699192321
p1867
aI11
aa(lp1868
V500356545730084864
p1869
aI10
aa(lp1870
V500356909816631296
p1871
aI10
aa(lp1872
V500357587997831169
p1873
aI23
aa(lp1874
V500358410572156928
p1875
aI24
aa(lp1876
V500356297519165440
p1877
aI9
aa(lp1878
V500357390299308032
p1879
aI26
aa(lp1880
V500384144405192704
p1881
aI9
aa(lp1882
V500350665315450881
p1883
aI7
aa(lp1884
V500354964838166528
p1885
aI29
aa(lp1886
V500355777878835200
p1887
aI30
aa(lp1888
V500356119932719104
p1889
aI31
aa(lp1890
V500356480432754689
p1891
aI7
aa(lp1892
V500357905968033792
p1893
aI33
aa(lp1894
V500359294181580800
p1895
aI34
aa(lp1896
V500348984347860992
p1897
aI0
aa(lp1898
V500348365746737152
p1899
aI0
aa(lp1900
V500366747506335744
p1901
aI37
aa(lp1902
V500367139652784128
p1903
aI38
aa(lp1904
V500367482679746560
p1905
aI39
aa(lp1906
V500368570724155392
p1907
aI40
aa(lp1908
V500654216239915008
p1909
aI41
aa(lp1910
V500479738964901889
p1911
aI41
aa(lp1912
V500371547496796162
p1913
aI37
aa(lp1914
V500372089967476736
p1915
aI44
aa(lp1916
V500373700974112768
p1917
aI45
aa(lp1918
V500373096860487680
p1919
aI44
aa(lp1920
V500374119725031424
p1921
aI47
aa(lp1922
V500367241888944130
p1923
aI37
aa(lp1924
V500368286027354113
p1925
aI49
aa(lp1926
V500369339628126209
p1927
aI50
aa(lp1928
V500369701240066048
p1929
aI51
aa(lp1930
V500371833376350208
p1931
aI51
aa(lp1932
V500371514127310850
p1933
aI51
aaa(lp1934
(lp1935
V500303431928922113
p1936
aI0
aa(lp1937
V500336087613464577
p1938
aI0
aa(lp1939
V500400826507341825
p1940
aI0
aa(lp1941
V500308746820927489
p1942
aI0
aa(lp1943
V500303711533408257
p1944
aI0
aa(lp1945
V500328120709570561
p1946
aI0
aa(lp1947
V500305500441833474
p1948
aI0
aa(lp1949
V500308000901701632
p1950
aI0
aa(lp1951
V500307986775298048
p1952
aI0
aa(lp1953
V500327481052655617
p1954
aI0
aa(lp1955
V500306266691219456
p1956
aI0
aa(lp1957
V500305625545318400
p1958
aI0
aa(lp1959
V500708519583420417
p1960
aI0
aa(lp1961
V500646220755251201
p1962
aI0
aa(lp1963
V500304691985526787
p1964
aI0
aa(lp1965
V500320646396518400
p1966
aI0
aa(lp1967
V500327907114246148
p1968
aI15
aa(lp1969
V500304713141600256
p1970
aI0
aaa(lp1971
(lp1972
V500307001629745152
p1973
aI0
aa(lp1974
V500385894134992896
p1975
aI0
aa(lp1976
V500386029791371267
p1977
aI1
aa(lp1978
V500310256598011904
p1979
aI0
aa(lp1980
V500310883684208640
p1981
aI3
aa(lp1982
V500311158138884096
p1983
aI4
aa(lp1984
V500314894063767553
p1985
aI5
aa(lp1986
V500313920301588480
p1987
aI4
aa(lp1988
V500313720145207297
p1989
aI4
aa(lp1990
V500311506676756480
p1991
aI4
aa(lp1992
V500312144421089281
p1993
aI9
aa(lp1994
V500315190529773570
p1995
aI10
aa(lp1996
V500316587333652480
p1997
aI11
aa(lp1998
V500318794862960640
p1999
aI12
aa(lp2000
V500320401369870336
p2001
aI13
aa(lp2002
V500321053197864961
p2003
aI14
aa(lp2004
V500321227597021184
p2005
aI15
aa(lp2006
V500321569907150848
p2007
aI15
aa(lp2008
V500319011955949569
p2009
aI13
aa(lp2010
V500378492488253440
p2011
aI18
aa(lp2012
V500379159965618178
p2013
aI19
aa(lp2014
V500379294284001282
p2015
aI19
aa(lp2016
V500381689399369730
p2017
aI21
aa(lp2018
V500383616283975680
p2019
aI22
aa(lp2020
V500385684285190144
p2021
aI23
aa(lp2022
V500383364084686849
p2023
aI22
aa(lp2024
V500384522840453120
p2025
aI25
aa(lp2026
V500384718496747520
p2027
aI26
aa(lp2028
V500384895319818240
p2029
aI27
aa(lp2030
V500385933523304448
p2031
aI27
aa(lp2032
V500392633760759808
p2033
aI29
aa(lp2034
V500399816954753024
p2035
aI30
aa(lp2036
V500400629739573250
p2037
aI31
aa(lp2038
V500401666454065154
p2039
aI32
aa(lp2040
V500400605035507712
p2041
aI31
aa(lp2042
V500392542853406720
p2043
aI29
aa(lp2044
V500381784425512960
p2045
aI21
aa(lp2046
V500379521900503040
p2047
aI19
aa(lp2048
V500380753272635392
p2049
aI37
aa(lp2050
V500384077481259008
p2051
aI38
aa(lp2052
V500384869419978752
p2053
aI39
aa(lp2054
V500385201181052928
p2055
aI40
aa(lp2056
V500386143943139332
p2057
aI41
aa(lp2058
V500389863561388032
p2059
aI42
aa(lp2060
V500399589417963521
p2061
aI43
aa(lp2062
V500400101097889792
p2063
aI44
aa(lp2064
V500400890126155777
p2065
aI45
aa(lp2066
V500402352919445504
p2067
aI44
aa(lp2068
V500404864443105280
p2069
aI47
aa(lp2070
V500405250755690496
p2071
aI48
aa(lp2072
V500405947253006339
p2073
aI49
aa(lp2074
V500407571153694720
p2075
aI50
aa(lp2076
V500415054559203329
p2077
aI51
aa(lp2078
V500415578373627904
p2079
aI52
aa(lp2080
V500405661864566784
p2081
aI48
aa(lp2082
V500405868244910081
p2083
aI54
aa(lp2084
V500406011543703552
p2085
aI55
aa(lp2086
V500405818769285120
p2087
aI48
aa(lp2088
V500406892644937728
p2089
aI57
aa(lp2090
V500407281486663680
p2091
aI58
aa(lp2092
V500415239163101184
p2093
aI59
aa(lp2094
V500405555282726912
p2095
aI48
aa(lp2096
V500406172155777025
p2097
aI61
aa(lp2098
V500406679176241153
p2099
aI62
aa(lp2100
V500402902662262784
p2101
aI47
aa(lp2102
V500387313050845184
p2103
aI42
aa(lp2104
V500399398132523009
p2105
aI65
aa(lp2106
V500385150468116480
p2107
aI40
aa(lp2108
V500319116776198144
p2109
aI18
aa(lp2110
V500320630156189697
p2111
aI68
aa(lp2112
V500320501475332096
p2113
aI13
aa(lp2114
V500315733633806336
p2115
aI11
aa(lp2116
V500320131239518209
p2117
aI71
aa(lp2118
V500320873086476288
p2119
aI72
aa(lp2120
V500321014816210944
p2121
aI72
aa(lp2122
V500311885120819200
p2123
aI9
aa(lp2124
V500309015981989888
p2125
aI0
aa(lp2126
V500315038541156352
p2127
aI0
aa(lp2128
V500315174633766912
p2129
aI77
aa(lp2130
V500320052449914880
p2131
aI78
aa(lp2132
V500320369056948224
p2133
aI79
aa(lp2134
V500320602520293376
p2135
aI80
aa(lp2136
V500320974697693185
p2137
aI80
aa(lp2138
V500321405540786176
p2139
aI82
aa(lp2140
V500322465323974656
p2141
aI83
aa(lp2142
V500322706760691712
p2143
aI84
aa(lp2144
V500323321519800321
p2145
aI85
aaa(lp2146
(lp2147
V500381163866062848
p2148
aI0
aa(lp2149
V500384948826935297
p2150
aI0
aa(lp2151
V500384255814299648
p2152
aI0
aa(lp2153
V500428718917951488
p2154
aI0
aa(lp2155
V500387275767681024
p2156
aI0
aa(lp2157
V500429048602845186
p2158
aI0
aa(lp2159
V500386447158161408
p2160
aI0
aa(lp2161
V500412019531849728
p2162
aI6
aaa(lp2163
(lp2164
V500308076004929537
p2165
aI0
aa(lp2166
V500316896299061248
p2167
aI0
aa(lp2168
V500309367129133056
p2169
aI0
aa(lp2170
V500317344997330945
p2171
aI2
aa(lp2172
V500317982799982592
p2173
aI2
aa(lp2174
V500317848536096768
p2175
aI0
aa(lp2176
V500318691909959681
p2177
aI5
aa(lp2178
V500309556921384960
p2179
aI0
aa(lp2180
V500312045334851585
p2181
aI7
aa(lp2182
V500312223471120384
p2183
aI7
aa(lp2184
V500324150519808000
p2185
aI9
aa(lp2186
V500317273002106880
p2187
aI9
aa(lp2188
V500317791933972481
p2189
aI9
aa(lp2190
V500313313188663296
p2191
aI0
aa(lp2192
V500308366561124352
p2193
aI0
aa(lp2194
V500308482676240384
p2195
aI14
aa(lp2196
V500311799712198656
p2197
aI15
aa(lp2198
V500310820635815937
p2199
aI0
aa(lp2200
V500312280933097472
p2201
aI0
aaa(lp2202
(lp2203
V500281094239817728
p2204
aI0
aa(lp2205
V501730232790183936
p2206
aI0
aa(lp2207
V501145902007222272
p2208
aI0
aa(lp2209
V500282232855334912
p2210
aI0
aa(lp2211
V500281536919642112
p2212
aI0
aa(lp2213
V500306952241840128
p2214
aI0
aaa.