(lp0
(lp1
(lp2
V525025463648137216
p3
aI0
aa(lp4
V525027625329508352
p5
aI0
aa(lp6
V525031063178211330
p7
aI0
aa(lp8
V525029708384468994
p9
aI0
aa(lp10
V525032025238294528
p11
aI0
aa(lp12
V525026551411519488
p13
aI0
aa(lp14
V525026071457300480
p15
aI0
aa(lp16
V525037638898954240
p17
aI0
aa(lp18
V525027171321282560
p19
aI0
aa(lp20
V525026196451782656
p21
aI0
aa(lp22
V525025722466058240
p23
aI0
aaa(lp24
(lp25
V524929497205055488
p26
aI0
aa(lp27
V524931961744142338
p28
aI0
aa(lp29
V525030609757151232
p30
aI0
aa(lp31
V524951847472488448
p32
aI0
aa(lp33
V524930598733758465
p34
aI0
aa(lp35
V524930767810756608
p36
aI0
aa(lp37
V524929713014181890
p38
aI0
aa(lp39
V524929931634286592
p40
aI6
aa(lp41
V524930651964051456
p42
aI6
aa(lp43
V524930719077122048
p44
aI6
aa(lp45
V524930529637175296
p46
aI6
aa(lp47
V524930854335053824
p48
aI6
aa(lp49
V524931726699954178
p50
aI0
aaa(lp51
(lp52
V524925215235911680
p53
aI0
aa(lp54
V524927455715663872
p55
aI0
aa(lp56
V524940919494426624
p57
aI0
aa(lp58
V524941120636469248
p59
aI0
aa(lp60
V524933596113801218
p61
aI0
aa(lp62
V524935939077206016
p63
aI0
aa(lp64
V524925756087214082
p65
aI0
aa(lp66
V524934180548124672
p67
aI0
aa(lp68
V524926127174078464
p69
aI0
aa(lp70
V524929949258768384
p71
aI0
aa(lp72
V524931144476028928
p73
aI0
aa(lp74
V524937817924067328
p75
aI0
aa(lp76
V524925724499935232
p77
aI0
aa(lp78
V524935683908333569
p79
aI0
aa(lp80
V524926377481736192
p81
aI0
aa(lp82
V524926300990214144
p83
aI0
aa(lp84
V524928075981918209
p85
aI0
aa(lp86
V524928329468870657
p87
aI0
aaa(lp88
(lp89
V525023025792835585
p90
aI0
aa(lp91
V525025685820030976
p92
aI0
aa(lp93
V525032806288601088
p94
aI0
aa(lp95
V525031384029872128
p96
aI0
aa(lp97
V525024680613511169
p98
aI0
aa(lp99
V525023379481313281
p100
aI0
aa(lp101
V525046262467293184
p102
aI0
aa(lp103
V525049296794574850
p104
aI0
aa(lp105
V525024498999783424
p106
aI0
aa(lp107
V525028433106309121
p108
aI0
aa(lp109
V525025735338381313
p110
aI0
aaa(lp111
(lp112
V524926235030589440
p113
aI0
aa(lp114
V524926674417500160
p115
aI0
aa(lp116
V524926344992686081
p117
aI0
aa(lp118
V524937952820883456
p119
aI0
aa(lp120
V524946118774620161
p121
aI0
aa(lp122
V524926750506377216
p123
aI0
aa(lp124
V524929568327888896
p125
aI0
aaa(lp126
(lp127
V524983581983375360
p128
aI0
aa(lp129
V524984794480775168
p130
aI0
aa(lp131
V524985542384320514
p132
aI0
aa(lp133
V524985802502447105
p134
aI2
aa(lp135
V525056723497660416
p136
aI3
aa(lp137
V524984804161642497
p138
aI0
aa(lp139
V524984000134520834
p140
aI0
aa(lp141
V524985119036411904
p142
aI0
aa(lp143
V524985076250341376
p144
aI0
aa(lp145
V524983715832029184
p146
aI0
aa(lp147
V524988101966303233
p148
aI9
aa(lp149
V524988215376510976
p150
aI10
aa(lp151
V524984454365077505
p152
aI0
aaa(lp153
(lp154
V524981436252950528
p155
aI0
aa(lp156
V524981904131764224
p157
aI0
aa(lp158
V524981780122972161
p159
aI0
aa(lp160
V525541364927574016
p161
aI0
aa(lp162
V524982686369472512
p163
aI0
aa(lp164
V525554047408160768
p165
aI0
aa(lp166
V524982445469622272
p167
aI0
aa(lp168
V524982163456786432
p169
aI0
aaa(lp170
(lp171
V524959809402331137
p172
aI0
aa(lp173
V524960933211168770
p174
aI0
aa(lp175
V524960034305114113
p176
aI0
aa(lp177
V524985774224048129
p178
aI2
aa(lp179
V524960862248132608
p180
aI0
aa(lp181
V524961297721749505
p182
aI0
aa(lp183
V524961861406838784
p184
aI0
aa(lp185
V524959988956291074
p186
aI0
aa(lp187
V524960004529737728
p188
aI0
aa(lp189
V524961093496885248
p190
aI0
aa(lp191
V524960097563590656
p192
aI0
aa(lp193
V524960960227078144
p194
aI0
aa(lp195
V524961643688890368
p196
aI0
aa(lp197
V524960274156371968
p198
aI0
aa(lp199
V524960359388823552
p200
aI0
aa(lp201
V524960144632070145
p202
aI0
aa(lp203
V524960409602650113
p204
aI0
aaa(lp205
(lp206
V524936872666353664
p207
aI0
aa(lp208
V524937639989092352
p209
aI0
aa(lp210
V524937314708242432
p211
aI0
aa(lp212
V524937381024378880
p213
aI0
aa(lp214
V524937735518564352
p215
aI0
aa(lp216
V524938245017436160
p217
aI4
aa(lp218
V524949525644201985
p219
aI5
aa(lp220
V524950283244544002
p221
aI6
aa(lp222
V524950411950948352
p223
aI7
aa(lp224
V524937867685289984
p225
aI0
aa(lp226
V524937277081145345
p227
aI0
aa(lp228
V524937374841987072
p229
aI0
aa(lp230
V524937401597427712
p231
aI0
aa(lp232
V524937721383755776
p233
aI0
aa(lp234
V524939593196793856
p235
aI13
aa(lp236
V524937375865401344
p237
aI0
aa(lp238
V524937966615920640
p239
aI0
aa(lp240
V524940069942358016
p241
aI16
aa(lp242
V524941538111922178
p243
aI17
aaa(lp244
(lp245
V524923462398513152
p246
aI0
aa(lp247
V524926236540555264
p248
aI0
aa(lp249
V524925639170998272
p250
aI0
aa(lp251
V524926523317710848
p252
aI0
aa(lp253
V524927906481721345
p254
aI3
aa(lp255
V524938029920948224
p256
aI0
aa(lp257
V524926370502430720
p258
aI0
aa(lp259
V524928263341481984
p260
aI0
aa(lp261
V524923588701614080
p262
aI0
aa(lp263
V524929751094665216
p264
aI0
aa(lp265
V524943172875845632
p266
aI0
aa(lp267
V524930875482705920
p268
aI0
aa(lp269
V524934870469197824
p270
aI0
aaa(lp271
(lp272
V524926472432410625
p273
aI0
aa(lp274
V524926985454518272
p275
aI0
aa(lp276
V524928355016396800
p277
aI0
aa(lp278
V524928143229190145
p279
aI0
aaa(lp280
(lp281
V524924619812511746
p282
aI0
aa(lp283
V524925023552020480
p284
aI0
aa(lp285
V525256528337854465
p286
aI1
aa(lp287
V524925154611441664
p288
aI0
aa(lp289
V524925487941160960
p290
aI3
aa(lp291
V524926050351185920
p292
aI4
aa(lp293
V524926393394933760
p294
aI5
aa(lp295
V524927041599447040
p296
aI6
aa(lp297
V524924867825913856
p298
aI0
aaa(lp299
(lp300
V524947674164760577
p301
aI0
aa(lp302
V524962626615664640
p303
aI0
aa(lp304
V524964193813155841
p305
aI1
aa(lp306
V524964503579262976
p307
aI2
aa(lp308
V524962753036185600
p309
aI0
aa(lp310
V524964141296259072
p311
aI4
aa(lp312
V524952396259409920
p313
aI0
aa(lp314
V524952460897828865
p315
aI0
aa(lp316
V524959514995724288
p317
aI0
aa(lp318
V524960036179968001
p319
aI8
aa(lp320
V524960914450415617
p321
aI9
aa(lp322
V524961467431665664
p323
aI10
aa(lp324
V524961925239959552
p325
aI11
aa(lp326
V524962300466569216
p327
aI12
aa(lp328
V524962623562186752
p329
aI13
aa(lp330
V524952276109373442
p331
aI0
aa(lp332
V524953683172524032
p333
aI0
aa(lp334
V524947899982290944
p335
aI0
aa(lp336
V524955418955902976
p337
aI0
aa(lp338
V524948114113703936
p339
aI0
aa(lp340
V524956642454941696
p341
aI0
aaa(lp342
(lp343
V524948866773184512
p344
aI0
aa(lp345
V525062819411419136
p346
aI0
aa(lp347
V524951869664133120
p348
aI0
aa(lp349
V524952352470495233
p350
aI0
aaa(lp351
(lp352
V524956129017995264
p353
aI0
aa(lp354
V524956679025487872
p355
aI0
aa(lp356
V524957131930624000
p357
aI0
aa(lp358
V524960171345592321
p359
aI0
aa(lp360
V524957535925993472
p361
aI0
aa(lp362
V524957146656821249
p363
aI0
aa(lp364
V524959078229880832
p365
aI5
aa(lp366
V524960426132791296
p367
aI6
aa(lp368
V524961283523612673
p369
aI7
aa(lp370
V524962037617938432
p371
aI8
aa(lp372
V524963581599547392
p373
aI9
aa(lp374
V524964253418401792
p375
aI10
aa(lp376
V524965013291679744
p377
aI11
aa(lp378
V524965991072423936
p379
aI12
aa(lp380
V524966291413561344
p381
aI13
aa(lp382
V524967358528757761
p383
aI14
aa(lp384
V524976163391696896
p385
aI15
aa(lp386
V524979653027856385
p387
aI16
aa(lp388
V524965291000750080
p389
aI11
aa(lp390
V524956507230593026
p391
aI0
aa(lp392
V524956724311388161
p393
aI0
aa(lp394
V524958112629809152
p395
aI0
aa(lp396
V524959489225940993
p397
aI0
aa(lp398
V524960172914266112
p399
aI0
aa(lp400
V524956946605309952
p401
aI0
aa(lp402
V524957744319975425
p403
aI0
aa(lp404
V524960113732632576
p405
aI25
aa(lp406
V524960305466466304
p407
aI26
aa(lp408
V524961799641526273
p409
aI27
aa(lp410
V524962985995821057
p411
aI28
aa(lp412
V524957420003803136
p413
aI0
aa(lp414
V524957310024945665
p415
aI0
aa(lp416
V524957484336041984
p417
aI0
aa(lp418
V524956728027512832
p419
aI0
aaa(lp420
(lp421
V524947416869388288
p422
aI0
aa(lp423
V524956595588194305
p424
aI0
aa(lp425
V524947672822988800
p426
aI0
aa(lp427
V524947580149825537
p428
aI0
aaa(lp429
(lp430
V524962142563610625
p431
aI0
aa(lp432
V524962753099075584
p433
aI0
aa(lp434
V524964642406535168
p435
aI0
aa(lp436
V524975109023735808
p437
aI0
aa(lp438
V524963251181076481
p439
aI0
aa(lp440
V524968425685516288
p441
aI0
aaa(lp442
(lp443
V524943490887991296
p444
aI0
aa(lp445
V524944687053152256
p446
aI0
aa(lp447
V524943794702401536
p448
aI0
aa(lp449
V524944680971415552
p450
aI0
aa(lp451
V524943686032175104
p452
aI0
aa(lp453
V524945168277852160
p454
aI0
aaa(lp455
(lp456
V524941132237910016
p457
aI0
aa(lp458
V524941892115783680
p459
aI0
aa(lp460
V524944416721862656
p461
aI0
aaa(lp462
(lp463
V524966904885428226
p464
aI0
aa(lp465
V524967761110650880
p466
aI0
aa(lp467
V524969813865545729
p468
aI0
aa(lp469
V524966987169292288
p470
aI0
aa(lp471
V524967134339022848
p472
aI3
aa(lp473
V524977090140315648
p474
aI0
aa(lp475
V524973660311154688
p476
aI0
aaa(lp477
(lp478
V524993533212897281
p479
aI0
aa(lp480
V524993786276220928
p481
aI0
aa(lp482
V524995135822905345
p483
aI1
aa(lp484
V524994366541398017
p485
aI1
aa(lp486
V524994741180846080
p487
aI0
aa(lp488
V525023033585827840
p489
aI0
aa(lp490
V525031764155453441
p491
aI0
aaa(lp492
(lp493
V524940659778920448
p494
aI0
aa(lp495
V524941666411872256
p496
aI0
aa(lp497
V524971253388816385
p498
aI0
aa(lp499
V525100398718484481
p500
aI0
aa(lp501
V524966301085995008
p502
aI0
aa(lp503
V524943514686464000
p504
aI0
aa(lp505
V524943452786929664
p506
aI0
aaa(lp507
(lp508
V524975705206304769
p509
aI0
aa(lp510
V524976661058826240
p511
aI0
aa(lp512
V524976291905552385
p513
aI0
aa(lp514
V524977527362953218
p515
aI0
aa(lp516
V524975860185825281
p517
aI0
aa(lp518
V524976050481422336
p519
aI4
aa(lp520
V524976999929237505
p521
aI5
aa(lp522
V524977226820104192
p523
aI6
aa(lp524
V524977413038817280
p525
aI7
aa(lp526
V524977621281824770
p527
aI8
aa(lp528
V524977773958684673
p529
aI9
aa(lp530
V524977952640221184
p531
aI10
aa(lp532
V524978385660153856
p533
aI11
aa(lp534
V524976279150657536
p535
aI0
aa(lp536
V524976772535037952
p537
aI0
aa(lp538
V524978635498082305
p539
aI14
aa(lp540
V524976564405276672
p541
aI0
aa(lp542
V524976688275673088
p543
aI0
aa(lp544
V524975908432928768
p545
aI0
aa(lp546
V524976422377775104
p547
aI0
aa(lp548
V524976240051367937
p549
aI0
aaa(lp550
(lp551
V525028734991343617
p552
aI0
aa(lp553
V525030166687670272
p554
aI0
aa(lp555
V525030173914431488
p556
aI0
aa(lp557
V525034956691869696
p558
aI2
aa(lp559
V525036486337757185
p560
aI0
aa(lp561
V525032614697385984
p562
aI0
aaa(lp563
(lp564
V524937542131793920
p565
aI0
aa(lp566
V524954077072228352
p567
aI0
aa(lp568
V524953098201362432
p569
aI0
aa(lp570
V524959677827014656
p571
aI0
aa(lp572
V524962719980879872
p573
aI3
aa(lp574
V524981938038534147
p575
aI4
aa(lp576
V524953732480794624
p577
aI0
aaa(lp578
(lp579
V524991576163250176
p580
aI0
aa(lp581
V524991797630865408
p582
aI0
aa(lp583
V524992137260453888
p584
aI0
aa(lp585
V524991671218745344
p586
aI0
aa(lp587
V524991949917663232
p588
aI0
aa(lp589
V524993414056927232
p590
aI0
aa(lp591
V524993836050042880
p592
aI0
aa(lp593
V524992668301262848
p594
aI0
aa(lp595
V524993079603130368
p596
aI7
aa(lp597
V524993314207305729
p598
aI0
aaa(lp599
(lp600
V525032872647065600
p601
aI0
aa(lp602
V525034442104901632
p603
aI0
aa(lp604
V525034548196024320
p605
aI1
aa(lp606
V525035734403530752
p607
aI2
aa(lp608
V525033513062371328
p609
aI0
aa(lp610
V525040562765053952
p611
aI0
aa(lp612
V525040767270543360
p613
aI5
aa(lp614
V525038702607994880
p615
aI0
aa(lp616
V525062791712235520
p617
aI0
aa(lp618
V525048948386299904
p619
aI0
aa(lp620
V525049059321462784
p621
aI9
aa(lp622
V525033521837273088
p623
aI0
aa(lp624
V525040309097336832
p625
aI0
aa(lp626
V525035264826413056
p627
aI0
aa(lp628
V525033642939416576
p629
aI0
aa(lp630
V525035256361934848
p631
aI14
aaa(lp632
(lp633
V524947867975561216
p634
aI0
aa(lp635
V524949399286579201
p636
aI0
aa(lp637
V524951486338715648
p638
aI1
aa(lp639
V524961635136704512
p640
aI2
aa(lp641
V524962293499822080
p642
aI3
aa(lp643
V524948946360483840
p644
aI0
aa(lp645
V524949161830260736
p646
aI0
aa(lp647
V524954646394445824
p648
aI0
aa(lp649
V524948444302286849
p650
aI0
aa(lp651
V524973362607845376
p652
aI8
aa(lp653
V524974577081126912
p654
aI9
aa(lp655
V524974903683203072
p656
aI9
aa(lp657
V524974129930592256
p658
aI9
aa(lp659
V524975028124016640
p660
aI12
aa(lp661
V524976013047263232
p662
aI13
aa(lp663
V524978305272135681
p664
aI14
aa(lp665
V524949153424879617
p666
aI0
aa(lp667
V524949316134535169
p668
aI0
aaa(lp669
(lp670
V525068915068923904
p671
aI0
aa(lp672
V525834551239524353
p673
aI0
aa(lp674
V525882599294517248
p675
aI1
aa(lp676
V525070724403564544
p677
aI0
aaa(lp678
(lp679
V524942470472548352
p680
aI0
aa(lp681
V524943159726309376
p682
aI0
aa(lp683
V524943410520924161
p684
aI0
aa(lp685
V524944078870700032
p686
aI0
aaa(lp687
(lp688
V524925730053181440
p689
aI0
aa(lp690
V524926744714047488
p691
aI0
aa(lp692
V524930977211355136
p693
aI1
aa(lp694
V525044903865511937
p695
aI2
aa(lp696
V525046502474137600
p697
aI3
aa(lp698
V525049327459504128
p699
aI4
aa(lp700
V525047771221737472
p701
aI3
aa(lp702
V524993716336197632
p703
aI2
aa(lp704
V524930715021213696
p705
aI1
aa(lp706
V525004768415322112
p707
aI8
aa(lp708
V525013445184602112
p709
aI9
aa(lp710
V524926598576099328
p711
aI0
aa(lp712
V524926749638131712
p713
aI0
aa(lp714
V524928009493827585
p715
aI0
aa(lp716
V524928439678427136
p717
aI0
aa(lp718
V524926108257775617
p719
aI0
aa(lp720
V524932703682969601
p721
aI0
aa(lp722
V524926297567293440
p723
aI0
aa(lp724
V524926131032850432
p725
aI0
aaa(lp726
(lp727
V524990163446140928
p728
aI0
aa(lp729
V525003827494531073
p730
aI0
aa(lp731
V524990764049522688
p732
aI0
aa(lp733
V524990563217838081
p734
aI0
aa(lp735
V524992704673890304
p736
aI0
aaa(lp737
(lp738
V525058976376193024
p739
aI0
aa(lp740
V525083768500264961
p741
aI0
aa(lp742
V525113495319502848
p743
aI0
aa(lp744
V525065014281908224
p745
aI0
aa(lp746
V525070492395261953
p747
aI0
aaa(lp748
(lp749
V524952883343925249
p750
aI0
aa(lp751
V524954362448449537
p752
aI0
aa(lp753
V524954684994629633
p754
aI0
aa(lp755
V524961388532228098
p756
aI0
aa(lp757
V524953204224962560
p758
aI0
aa(lp759
V524959930928070656
p760
aI0
aa(lp761
V524960241340141568
p762
aI5
aa(lp763
V524954461349752832
p764
aI0
aa(lp765
V524956203294941184
p766
aI0
aa(lp767
V524954368324288512
p768
aI0
aa(lp769
V524961842603388928
p770
aI0
aa(lp771
V524954074262011904
p772
aI0
aa(lp773
V525019382490361856
p774
aI11
aa(lp775
V525034103985684480
p776
aI12
aa(lp777
V525030741252767744
p778
aI12
aa(lp779
V525031846355435520
p780
aI12
aa(lp781
V524954878138155008
p782
aI11
aa(lp783
V524954979736379392
p784
aI0
aa(lp785
V524959159377080320
p786
aI0
aa(lp787
V524954311395405824
p788
aI0
aaa(lp789
(lp790
V525019752507658240
p791
aI0
aa(lp792
V525022674599555072
p793
aI0
aa(lp794
V525022127255482368
p795
aI0
aa(lp796
V525020658972258305
p797
aI0
aa(lp798
V525020934265393152
p799
aI3
aa(lp800
V525065680849481730
p801
aI4
aa(lp802
V525066315036237824
p803
aI5
aa(lp804
V525667513724862464
p805
aI6
aa(lp806
V525021185613238272
p807
aI4
aa(lp808
V525021127702106112
p809
aI0
aa(lp810
V525022226668855296
p811
aI0
aa(lp812
V525020543603703809
p813
aI0
aa(lp814
V525020856381362176
p815
aI11
aa(lp816
V525023827513069568
p817
aI12
aa(lp818
V525024232095612928
p819
aI13
aa(lp820
V525027654509293568
p821
aI14
aa(lp822
V525024672975716352
p823
aI14
aa(lp824
V525404621280641024
p825
aI11
aa(lp826
V525022123426086912
p827
aI0
aa(lp828
V525022402217271296
p829
aI0
aa(lp830
V525020978485940226
p831
aI0
aa(lp832
V525404874796961794
p833
aI20
aa(lp834
V525405160282288130
p835
aI21
aa(lp836
V525406690116894720
p837
aI22
aa(lp838
V525408911105347584
p839
aI23
aa(lp840
V525021049759752192
p841
aI20
aa(lp842
V525022239356645377
p843
aI25
aa(lp844
V525020363357683712
p845
aI0
aa(lp846
V525020749019770881
p847
aI27
aa(lp848
V525021824263151616
p849
aI0
aa(lp850
V525022456059547648
p851
aI0
aa(lp852
V525023449262333952
p853
aI0
aa(lp854
V525026201103265792
p855
aI31
aaa(lp856
(lp857
V524995771587108864
p858
aI0
aa(lp859
V525000464593858561
p860
aI0
aa(lp861
V525047302663442433
p862
aI0
aa(lp863
V525008964409638912
p864
aI0
aa(lp865
V525015793374101506
p866
aI0
aa(lp867
V525036307173879808
p868
aI0
aa(lp869
V525299114922496000
p870
aI5
aaa(lp871
(lp872
V524935485370929152
p873
aI0
aa(lp874
V524936215637000192
p875
aI0
aa(lp876
V524935836899766272
p877
aI0
aa(lp878
V524935708814086144
p879
aI0
aa(lp880
V524935938284486656
p881
aI3
aa(lp882
V524936619879849985
p883
aI4
aa(lp884
V524937325932212224
p885
aI5
aa(lp886
V524937651229822976
p887
aI6
aa(lp888
V524937953148403713
p889
aI7
aa(lp890
V524938416086347776
p891
aI8
aa(lp892
V524938104327905280
p893
aI8
aa(lp894
V524938564866682880
p895
aI10
aa(lp896
V524938851622854657
p897
aI11
aa(lp898
V524936372889853952
p899
aI4
aa(lp900
V524937423420411904
p901
aI4
aa(lp902
V524936152902811648
p903
aI4
aa(lp904
V524936266517733376
p905
aI0
aaa(lp906
(lp907
V524923676484177920
p908
aI0
aa(lp909
V524925539996667904
p910
aI0
aa(lp911
V524925391266664448
p912
aI0
aa(lp913
V524925449068355584
p914
aI0
aa(lp915
V524924651080650752
p916
aI0
aa(lp917
V524924074087436289
p918
aI0
aa(lp919
V524926568171577345
p920
aI0
aa(lp921
V524932346961985536
p922
aI0
aa(lp923
V524924021608284160
p924
aI0
aa(lp925
V524925154800181248
p926
aI0
aaa(lp927
(lp928
V524965775036387329
p929
aI0
aa(lp930
V524972195978964993
p931
aI0
aa(lp932
V525015279387299840
p933
aI0
aa(lp934
V524974387125317633
p935
aI0
aa(lp936
V525005729938554882
p937
aI0
aaa(lp938
(lp939
V525056576038518785
p940
aI0
aa(lp941
V525070441405095936
p942
aI0
aa(lp943
V525057624916520960
p944
aI0
aa(lp945
V525072231022333953
p946
aI0
aa(lp947
V525071940428771330
p948
aI0
aa(lp949
V525072407321927681
p950
aI4
aa(lp951
V525057081515061248
p952
aI0
aa(lp953
V525068703109758977
p954
aI0
aa(lp955
V525061525409525760
p956
aI0
aa(lp957
V525057109910495232
p958
aI0
aa(lp959
V525058373591367680
p960
aI0
aa(lp961
V525057571321688064
p962
aI0
aa(lp963
V525080746080620544
p964
aI11
aa(lp965
V525057584416292867
p966
aI0
aa(lp967
V525066880219115520
p968
aI0
aa(lp969
V525057102306222083
p970
aI0
aa(lp971
V525080429410664448
p972
aI15
aa(lp973
V525278489721966592
p974
aI16
aa(lp975
V525058435361292288
p976
aI0
aa(lp977
V525059328685133824
p978
aI0
aa(lp979
V525062334302412800
p980
aI0
aa(lp981
V525060851661668352
p982
aI0
aaa(lp983
(lp984
V524931324763992064
p985
aI0
aa(lp986
V524934352845938689
p987
aI0
aa(lp988
V524933622441476096
p989
aI0
aa(lp990
V524932468437053440
p991
aI0
aa(lp992
V524932714940862464
p993
aI3
aa(lp994
V524932994553769984
p995
aI4
aaa(lp996
(lp997
V524932935137628160
p998
aI0
aa(lp999
V524933104742723584
p1000
aI0
aa(lp1001
V524939588406878208
p1002
aI1
aa(lp1003
V524940370321629184
p1004
aI2
aa(lp1005
V524933148380237825
p1006
aI0
aa(lp1007
V524933385010290688
p1008
aI0
aa(lp1009
V524934003892432896
p1010
aI0
aa(lp1011
V524934776940412929
p1012
aI6
aa(lp1013
V524936650087231488
p1014
aI7
aa(lp1015
V524940223160287232
p1016
aI8
aa(lp1017
V524941900223381504
p1018
aI9
aa(lp1019
V524944658992865280
p1020
aI10
aa(lp1021
V524957372369108993
p1022
aI11
aa(lp1023
V524958563312357376
p1024
aI12
aa(lp1025
V524959735091847168
p1026
aI13
aa(lp1027
V524960764503674880
p1028
aI14
aa(lp1029
V524959184928768002
p1030
aI13
aa(lp1031
V524970141189431296
p1032
aI13
aa(lp1033
V524958146343624704
p1034
aI12
aa(lp1035
V524946023165460480
p1036
aI11
aa(lp1037
V524962247563431936
p1038
aI19
aa(lp1039
V524962953695858689
p1040
aI20
aa(lp1041
V525522784748060672
p1042
aI21
aa(lp1043
V524990987308134400
p1044
aI20
aa(lp1045
V524993526564929536
p1046
aI23
aa(lp1047
V524994047451332608
p1048
aI24
aa(lp1049
V524996012847665152
p1050
aI25
aa(lp1051
V524996728811175936
p1052
aI26
aa(lp1053
V524943005313409025
p1054
aI10
aa(lp1055
V524945080613093376
p1056
aI28
aa(lp1057
V524946657755299840
p1058
aI29
aa(lp1059
V524933431793553408
p1060
aI0
aa(lp1061
V524939106367721472
p1062
aI0
aa(lp1063
V524933274444238848
p1064
aI0
aa(lp1065
V524933486407602176
p1066
aI0
aa(lp1067
V524935670260047872
p1068
aI0
aaa(lp1069
(lp1070
V524925987239120897
p1071
aI0
aa(lp1072
V524930943971504129
p1073
aI0
aa(lp1074
V524930594464362496
p1075
aI0
aa(lp1076
V524933733246574592
p1077
aI0
aa(lp1078
V524938679958405120
p1079
aI0
aaa(lp1080
(lp1081
V525049639016615937
p1082
aI0
aa(lp1083
V525063388934967298
p1084
aI0
aa(lp1085
V525081032824209408
p1086
aI0
aa(lp1087
V525052198586040321
p1088
aI0
aa(lp1089
V525061861398806528
p1090
aI0
aa(lp1091
V525053884029763585
p1092
aI0
aaa(lp1093
(lp1094
V524980744658382848
p1095
aI0
aa(lp1096
V524982162270220288
p1097
aI0
aa(lp1098
V524991474480730112
p1099
aI0
aa(lp1100
V524983036098924545
p1101
aI0
aa(lp1102
V524983426072731648
p1103
aI0
aa(lp1104
V525001263922937857
p1105
aI0
aa(lp1106
V524981867876212736
p1107
aI0
aa(lp1108
V524983145394110464
p1109
aI0
aa(lp1110
V525043841490251776
p1111
aI0
aa(lp1112
V524990946497531905
p1113
aI0
aaa(lp1114
(lp1115
V524925050739490816
p1116
aI0
aa(lp1117
V524925775678816256
p1118
aI0
aa(lp1119
V524929224260714499
p1120
aI0
aa(lp1121
V524925341316689920
p1122
aI0
aa(lp1123
V524930352000036864
p1124
aI0
aa(lp1125
V524930718645092353
p1126
aI0
aa(lp1127
V524932019248463872
p1128
aI0
aa(lp1129
V524925553070329856
p1130
aI0
aa(lp1131
V524929840173309952
p1132
aI0
aa(lp1133
V524926310565814272
p1134
aI0
aa(lp1135
V524926071599534080
p1136
aI0
aa(lp1137
V524926357927903232
p1138
aI0
aaa(lp1139
(lp1140
V524932056560963584
p1141
aI0
aa(lp1142
V524941386231971841
p1143
aI0
aa(lp1144
V524933566405562368
p1145
aI0
aaa(lp1146
(lp1147
V524972443308683264
p1148
aI0
aa(lp1149
V524989861087158272
p1150
aI0
aa(lp1151
V524990464970489856
p1152
aI1
aa(lp1153
V524995006088896513
p1154
aI2
aa(lp1155
V524995354539085826
p1156
aI3
aa(lp1157
V524996070972358656
p1158
aI4
aa(lp1159
V524996595021283328
p1160
aI5
aa(lp1161
V524975009488330756
p1162
aI0
aa(lp1163
V524974351095832578
p1164
aI0
aa(lp1165
V524974608286359552
p1166
aI8
aa(lp1167
V524975119438200833
p1168
aI9
aa(lp1169
V524995496944087040
p1170
aI0
aaa(lp1171
(lp1172
V524944399890124801
p1173
aI0
aa(lp1174
V524946532416884736
p1175
aI0
aa(lp1176
V524949253312217088
p1177
aI1
aa(lp1178
V524951483872444416
p1179
aI2
aa(lp1180
V524967855105007616
p1181
aI3
aa(lp1182
V524969433308340224
p1183
aI4
aa(lp1184
V524970408479850496
p1185
aI5
aa(lp1186
V524970090912313345
p1187
aI5
aa(lp1188
V524971624093982721
p1189
aI7
aa(lp1190
V524971261005660160
p1191
aI7
aa(lp1192
V524971862682767360
p1193
aI9
aa(lp1194
V524972557116915712
p1195
aI10
aa(lp1196
V524948893633871872
p1197
aI0
aa(lp1198
V524946767209459712
p1199
aI0
aa(lp1200
V524945130113863680
p1201
aI0
aa(lp1202
V524945376911314945
p1203
aI0
aa(lp1204
V524948340057047040
p1205
aI0
aa(lp1206
V524946868887756801
p1207
aI0
aa(lp1208
V524952198170836992
p1209
aI0
aa(lp1210
V524952535548063745
p1211
aI18
aa(lp1212
V524953373200891904
p1213
aI19
aa(lp1214
V524953954111995904
p1215
aI20
aaa(lp1216
(lp1217
V525003468659228672
p1218
aI0
aa(lp1219
V525007273832497154
p1220
aI0
aa(lp1221
V525007688405491712
p1222
aI1
aa(lp1223
V525008782842396672
p1224
aI2
aa(lp1225
V525009250213326848
p1226
aI3
aa(lp1227
V525009872640032768
p1228
aI4
aa(lp1229
V525010026143162368
p1230
aI5
aa(lp1231
V525009240772317184
p1232
aI3
aa(lp1233
V525006759807967232
p1234
aI0
aa(lp1235
V525009403658129408
p1236
aI0
aa(lp1237
V525007939569221632
p1238
aI0
aa(lp1239
V525008177683636224
p1240
aI0
aa(lp1241
V525008290863136768
p1242
aI0
aa(lp1243
V525009574256848897
p1244
aI12
aa(lp1245
V525009978047078400
p1246
aI12
aa(lp1247
V525009203187171329
p1248
aI0
aa(lp1249
V525007275308908544
p1250
aI0
aaa(lp1251
(lp1252
V524964948683005952
p1253
aI0
aa(lp1254
V524968014484365313
p1255
aI0
aa(lp1256
V524970031856488448
p1257
aI1
aa(lp1258
V524970424246226945
p1259
aI2
aa(lp1260
V524971348469510145
p1261
aI2
aa(lp1262
V524969798170869761
p1263
aI1
aa(lp1264
V524971522126270464
p1265
aI5
aa(lp1266
V524971210275565568
p1267
aI5
aa(lp1268
V524969503499616256
p1269
aI1
aa(lp1270
V524973817219653633
p1271
aI8
aa(lp1272
V524974795503726593
p1273
aI9
aa(lp1274
V524971397488336897
p1275
aI8
aa(lp1276
V524971955381092353
p1277
aI11
aa(lp1278
V524972276345622528
p1279
aI12
aa(lp1280
V524972665564835841
p1281
aI13
aa(lp1282
V524972964052103169
p1283
aI14
aa(lp1284
V524973940343840768
p1285
aI15
aa(lp1286
V524973904969093120
p1287
aI15
aa(lp1288
V524972433984323584
p1289
aI12
aa(lp1290
V524972933652185089
p1291
aI18
aa(lp1292
V524973072504606720
p1293
aI18
aa(lp1294
V524972859714981889
p1295
aI18
aa(lp1296
V524973750710591490
p1297
aI8
aa(lp1298
V524974290115244032
p1299
aI22
aa(lp1300
V524974054957002752
p1301
aI8
aa(lp1302
V524974420428075009
p1303
aI24
aa(lp1304
V524973649527193601
p1305
aI8
aa(lp1306
V524970201503526912
p1307
aI8
aa(lp1308
V524971249152577536
p1309
aI1
aa(lp1310
V524971804096737280
p1311
aI28
aa(lp1312
V524972948508409856
p1313
aI29
aa(lp1314
V524973312901132288
p1315
aI30
aa(lp1316
V524973597467901952
p1317
aI31
aa(lp1318
V524977054178353154
p1319
aI32
aa(lp1320
V524973370677690368
p1321
aI29
aa(lp1322
V524974118614347776
p1323
aI34
aa(lp1324
V524974938256457729
p1325
aI35
aa(lp1326
V524976005564215296
p1327
aI35
aa(lp1328
V524976953707999232
p1329
aI37
aa(lp1330
V524977699584897024
p1331
aI38
aa(lp1332
V525011846164938752
p1333
aI39
aa(lp1334
V525029545540612096
p1335
aI40
aa(lp1336
V524973155014946816
p1337
aI29
aa(lp1338
V524965523470434305
p1339
aI0
aa(lp1340
V524967686284255232
p1341
aI43
aaa(lp1342
(lp1343
V524922729485848576
p1344
aI0
aa(lp1345
V524923106289516546
p1346
aI0
aa(lp1347
V524927409100193792
p1348
aI0
aa(lp1349
V524935505755254786
p1350
aI0
aa(lp1351
V524935781643980800
p1352
aI3
aa(lp1353
V524935834941001728
p1354
aI0
aa(lp1355
V525014151161081856
p1356
aI5
aa(lp1357
V525020495759282176
p1358
aI6
aa(lp1359
V525016388457738241
p1360
aI6
aa(lp1361
V525017113618956290
p1362
aI8
aa(lp1363
V525018964364382209
p1364
aI9
aa(lp1365
V525023805572648960
p1366
aI10
aa(lp1367
V524938343180931073
p1368
aI5
aa(lp1369
V524938364743876608
p1370
aI5
aa(lp1371
V524938903762268160
p1372
aI13
aa(lp1373
V524964692423630849
p1374
aI14
aa(lp1375
V524938764616204290
p1376
aI13
aa(lp1377
V524996775049191424
p1378
aI16
aa(lp1379
V524996902832852992
p1380
aI17
aa(lp1381
V524998240262180865
p1382
aI18
aa(lp1383
V524998898117779456
p1384
aI19
aa(lp1385
V524999052367527937
p1386
aI20
aa(lp1387
V525000734992248832
p1388
aI21
aa(lp1389
V525000276894572546
p1390
aI21
aa(lp1391
V525003648104161281
p1392
aI23
aa(lp1393
V525003675685888000
p1394
aI24
aa(lp1395
V524929863333842944
p1396
aI0
aa(lp1397
V524935320786456578
p1398
aI26
aa(lp1399
V524949065469923328
p1400
aI27
aa(lp1401
V524940813089144833
p1402
aI27
aa(lp1403
V524923432933552128
p1404
aI0
aa(lp1405
V524924489058889728
p1406
aI0
aa(lp1407
V524941702046707712
p1408
aI0
aa(lp1409
V524943557657133056
p1410
aI32
aa(lp1411
V524943685264629760
p1412
aI33
aa(lp1413
V524943846711754752
p1414
aI34
aa(lp1415
V524943951472906240
p1416
aI35
aaa(lp1417
(lp1418
V525060425184858112
p1419
aI0
aa(lp1420
V525062377713455104
p1421
aI0
aa(lp1422
V525061437224648704
p1423
aI0
aa(lp1424
V525072756191547393
p1425
aI2
aa(lp1426
V525062454372757504
p1427
aI2
aa(lp1428
V525061828997820417
p1429
aI0
aa(lp1430
V525061994504671234
p1431
aI0
aa(lp1432
V525061628078067712
p1433
aI0
aa(lp1434
V525061045870551040
p1435
aI0
aa(lp1436
V525060679272001537
p1437
aI0
aa(lp1438
V525083549284966400
p1439
aI9
aa(lp1440
V525061909968478208
p1441
aI0
aa(lp1442
V525061831229210624
p1443
aI0
aa(lp1444
V525060901137702913
p1445
aI0
aa(lp1446
V525061709518888960
p1447
aI0
aa(lp1448
V525062273854078976
p1449
aI0
aaa(lp1450
(lp1451
V525025279803424768
p1452
aI0
aa(lp1453
V525032985738084352
p1454
aI0
aa(lp1455
V525029987855122432
p1456
aI0
aa(lp1457
V525026654759182338
p1458
aI0
aa(lp1459
V525030036911689728
p1460
aI0
aa(lp1461
V525026519790284800
p1462
aI0
aa(lp1463
V525036532013727744
p1464
aI0
aa(lp1465
V525032961310482432
p1466
aI0
aa(lp1467
V525031054537936897
p1468
aI0
aaa(lp1469
(lp1470
V524969201102901248
p1471
aI0
aa(lp1472
V524976794198638592
p1473
aI0
aa(lp1474
V524970440285249536
p1475
aI0
aa(lp1476
V524989506509103105
p1477
aI0
aa(lp1478
V524971350881218560
p1479
aI0
aa(lp1480
V524976232266731520
p1481
aI0
aa(lp1482
V524971262071033857
p1483
aI0
aa(lp1484
V524970364771000320
p1485
aI0
aa(lp1486
V524971630678642688
p1487
aI0
aa(lp1488
V524983303599054850
p1489
aI0
aa(lp1490
V524986499411226624
p1491
aI0
aa(lp1492
V524975741306298368
p1493
aI0
aa(lp1494
V524979444881313792
p1495
aI0
aa(lp1496
V524990593895002112
p1497
aI0
aa(lp1498
V524972839078985728
p1499
aI0
aa(lp1500
V524975896432611328
p1501
aI0
aa(lp1502
V524971066943602688
p1503
aI0
aa(lp1504
V524986956409614336
p1505
aI0
aaa(lp1506
(lp1507
V524949443607412737
p1508
aI0
aa(lp1509
V524956714303754240
p1510
aI0
aa(lp1511
V524950200281202688
p1512
aI0
aa(lp1513
V524956942926880768
p1514
aI0
aa(lp1515
V524950874767249408
p1516
aI0
aaa(lp1517
(lp1518
V524927281048080385
p1519
aI0
aa(lp1520
V524938376735379457
p1521
aI0
aa(lp1522
V524939504982167552
p1523
aI0
aa(lp1524
V524931933168746496
p1525
aI0
aa(lp1526
V524934434404192256
p1527
aI0
aa(lp1528
V524941897266397184
p1529
aI4
aa(lp1530
V524942146475163649
p1531
aI5
aa(lp1532
V524942493050494976
p1533
aI5
aa(lp1534
V524942844499619841
p1535
aI7
aa(lp1536
V524950880681201664
p1537
aI8
aa(lp1538
V524965141268692993
p1539
aI8
aa(lp1540
V524965532211351552
p1541
aI10
aa(lp1542
V524966130700791808
p1543
aI11
aa(lp1544
V524966555072094208
p1545
aI12
aa(lp1546
V524966663251566594
p1547
aI12
aa(lp1548
V524965546379739136
p1549
aI10
aa(lp1550
V524965821337329666
p1551
aI15
aa(lp1552
V524966881573470208
p1553
aI16
aa(lp1554
V524967132090888192
p1555
aI17
aa(lp1556
V524967669083414528
p1557
aI18
aa(lp1558
V524967144367591425
p1559
aI17
aa(lp1560
V524968082083958784
p1561
aI20
aa(lp1562
V524968348468412416
p1563
aI21
aa(lp1564
V524969635410870273
p1565
aI22
aa(lp1566
V524970281379823616
p1567
aI23
aa(lp1568
V524970687803715584
p1569
aI24
aa(lp1570
V524969935383326721
p1571
aI23
aa(lp1572
V524971471501021184
p1573
aI26
aa(lp1574
V524971151693729792
p1575
aI26
aa(lp1576
V524936331605323776
p1577
aI0
aa(lp1578
V524927826718638081
p1579
aI0
aa(lp1580
V524929656190148609
p1581
aI0
aa(lp1582
V524939756455477249
p1583
aI0
aa(lp1584
V524934820124975106
p1585
aI0
aa(lp1586
V524928326566412289
p1587
aI0
aa(lp1588
V524936956225282048
p1589
aI0
aa(lp1590
V524928498771972096
p1591
aI0
aa(lp1592
V524931034329395200
p1593
aI0
aa(lp1594
V524941965012795393
p1595
aI37
aa(lp1596
V524947016238268416
p1597
aI38
aa(lp1598
V524948547750621184
p1599
aI39
aaa(lp1600
(lp1601
V524970851675176960
p1602
aI0
aa(lp1603
V524973778439528450
p1604
aI0
aa(lp1605
V524977026890211328
p1606
aI0
aa(lp1607
V524973084596375553
p1608
aI0
aa(lp1609
V524973750694182912
p1610
aI0
aa(lp1611
V524972452464824320
p1612
aI0
aaa.