(lp0
(lp1
(lp2
V552978184413921281
p3
aI0
aa(lp4
V552979530923925504
p5
aI0
aa(lp6
V552979232515948546
p7
aI0
aaa(lp8
(lp9
V552802654641225728
p10
aI0
aa(lp11
V552846396106502144
p12
aI0
aa(lp13
V552804023389392896
p14
aI0
aa(lp15
V552803445711708160
p16
aI0
aa(lp17
V552804602702475265
p18
aI0
aa(lp19
V552806033585090560
p20
aI0
aa(lp21
V552808630022840320
p22
aI5
aa(lp23
V552804298870910977
p24
aI0
aaa(lp25
(lp26
V553590835850514433
p27
aI0
aa(lp28
V553594057034051584
p29
aI0
aa(lp30
V553593201756762113
p31
aI0
aa(lp32
V553591307206422528
p33
aI0
aa(lp34
V553603571200311296
p35
aI0
aa(lp36
V553592233354870785
p37
aI0
aa(lp38
V553591557325336576
p39
aI0
aa(lp40
V553590931866521602
p41
aI0
aa(lp42
V553590917773656065
p43
aI0
aa(lp44
V553596117909512192
p45
aI0
aa(lp46
V553615178492043264
p47
aI0
aa(lp48
V553615282435289088
p49
aI10
aa(lp50
V553615451549605888
p51
aI11
aa(lp52
V553615536354246656
p53
aI12
aa(lp54
V553615750175686656
p55
aI13
aa(lp56
V553591583623245824
p57
aI0
aa(lp58
V553591259009658881
p59
aI0
aa(lp60
V553591850532347906
p61
aI0
aa(lp62
V553591266316152832
p63
aI0
aa(lp64
V553591230006067200
p65
aI0
aa(lp66
V553591773537513473
p67
aI0
aaa(lp68
(lp69
V553212962044149761
p70
aI0
aa(lp71
V553214220364685313
p72
aI0
aa(lp73
V553214228488667136
p74
aI0
aa(lp75
V553213579672178689
p76
aI0
aa(lp77
V553213078889062401
p78
aI0
aa(lp79
V553214496567590914
p80
aI0
aa(lp81
V553232132269953024
p82
aI5
aa(lp83
V553217937117831168
p84
aI5
aaa(lp85
(lp86
V553518472798683136
p87
aI0
aa(lp88
V553519787943690242
p89
aI0
aa(lp90
V553518923409547264
p91
aI0
aa(lp92
V553521356378476544
p93
aI0
aa(lp94
V553520622920536064
p95
aI0
aa(lp96
V553521113733824513
p97
aI0
aa(lp98
V553522878902468608
p99
aI0
aa(lp100
V553520342111494145
p101
aI0
aa(lp102
V553521154921881600
p103
aI0
aa(lp104
V553518879222161408
p105
aI0
aa(lp106
V553521787225796608
p107
aI0
aa(lp108
V553524538903109632
p109
aI10
aa(lp110
V553521412934475777
p111
aI0
aa(lp112
V553518706681053184
p113
aI0
aa(lp114
V553521233162031104
p115
aI0
aa(lp116
V553519647400554497
p117
aI0
aa(lp118
V553520926906941440
p119
aI0
aa(lp120
V553520097395245056
p121
aI0
aa(lp122
V553519009149100032
p123
aI0
aa(lp124
V553521650831196160
p125
aI0
aa(lp126
V553519836249071617
p127
aI0
aaa(lp128
(lp129
V553531413459660800
p130
aI0
aa(lp131
V553533391216582656
p132
aI0
aa(lp133
V553531861885259776
p134
aI0
aa(lp135
V553535185695043584
p136
aI0
aa(lp137
V553535295111847936
p138
aI3
aa(lp139
V553532938508587008
p140
aI0
aa(lp141
V554247300738854912
p142
aI0
aa(lp143
V553531601838432257
p144
aI0
aa(lp145
V553538891228385280
p146
aI0
aa(lp147
V553532431517876225
p148
aI0
aa(lp149
V553542100143591426
p150
aI0
aa(lp151
V553532010447527936
p152
aI0
aa(lp153
V553535680979427328
p154
aI0
aaa(lp155
(lp156
V553566026030272512
p157
aI0
aa(lp158
V553566385105027072
p159
aI0
aa(lp160
V553566368952377344
p161
aI0
aa(lp162
V553567740104286209
p163
aI2
aa(lp164
V553568091980824576
p165
aI3
aa(lp166
V553567980354031616
p167
aI0
aa(lp168
V553568642965979136
p169
aI0
aa(lp170
V553566115969105920
p171
aI0
aa(lp172
V553570156438638592
p173
aI0
aa(lp174
V553566214174556160
p175
aI0
aa(lp176
V553566995984437248
p177
aI0
aa(lp178
V553567072114839553
p179
aI0
aaa(lp180
(lp181
V553197863971610624
p182
aI0
aa(lp183
V553198239399157761
p184
aI0
aa(lp185
V553202633377599488
p186
aI0
aa(lp187
V553210433570881536
p188
aI2
aa(lp189
V553213293964562434
p190
aI3
aa(lp191
V553213552337891328
p192
aI4
aa(lp193
V553203833921613824
p194
aI0
aa(lp195
V553199058849103872
p196
aI0
aa(lp197
V553204674766331904
p198
aI0
aa(lp199
V553212936995762176
p200
aI0
aa(lp201
V553203187533230080
p202
aI0
aa(lp203
V553199853820723201
p204
aI0
aa(lp205
V553211195881426944
p206
aI0
aa(lp207
V553198499891007488
p208
aI0
aa(lp209
V553201111159824384
p210
aI13
aa(lp211
V553201660953366528
p212
aI13
aa(lp213
V553199418032521216
p214
aI13
aa(lp215
V553891758271369216
p216
aI13
aa(lp217
V553203171674181634
p218
aI0
aa(lp219
V553205437043326976
p220
aI0
aa(lp221
V553203804628598784
p222
aI0
aa(lp223
V553201889685553153
p224
aI0
aa(lp225
V553203935088214017
p226
aI0
aa(lp227
V553217526646439936
p228
aI22
aaa(lp229
(lp230
V553586897168392192
p231
aI0
aa(lp232
V553594257593106432
p233
aI0
aa(lp234
V553589974369845248
p235
aI0
aa(lp236
V553587250232311810
p237
aI0
aa(lp238
V553591055783051264
p239
aI0
aa(lp240
V553591222456291328
p241
aI4
aa(lp242
V553589683402579968
p243
aI0
aa(lp244
V553757432455770112
p245
aI6
aa(lp246
V553587367983194113
p247
aI0
aa(lp248
V553588165408473088
p249
aI0
aa(lp250
V553590837666656257
p251
aI0
aa(lp252
V553587662658207745
p253
aI0
aaa(lp254
(lp255
V553184482241814530
p256
aI0
aa(lp257
V553196247319064576
p258
aI0
aa(lp259
V553184777315287040
p260
aI0
aa(lp261
V553186074311528448
p262
aI0
aa(lp263
V553192939888058369
p264
aI0
aa(lp265
V553189048052105216
p266
aI0
aa(lp267
V553200322231808001
p268
aI5
aa(lp269
V553195335661912064
p270
aI0
aa(lp271
V553188436178264066
p272
aI0
aa(lp273
V553187813668425728
p274
aI0
aa(lp275
V553195879692517376
p276
aI0
aa(lp277
V553184702530453505
p278
aI0
aa(lp279
V553188394113986561
p280
aI0
aa(lp281
V553197749240221699
p282
aI12
aa(lp283
V553198944998543360
p284
aI13
aa(lp285
V553498348674875393
p286
aI12
aa(lp287
V553549483984711681
p288
aI15
aa(lp289
V553549691129192448
p290
aI16
aa(lp291
V553187777689694208
p292
aI0
aa(lp293
V553197339813220352
p294
aI18
aa(lp295
V553199295588212736
p296
aI19
aa(lp297
V553199414659907584
p298
aI20
aa(lp299
V553184912258654208
p300
aI0
aa(lp301
V553184841873633280
p302
aI0
aa(lp303
V553185403650322432
p304
aI0
aa(lp305
V553185273639895040
p306
aI0
aa(lp307
V553185239791857664
p308
aI0
aa(lp309
V553185449150541824
p310
aI0
aa(lp311
V553187655434108928
p312
aI0
aaa(lp313
(lp314
V553558982476828674
p315
aI0
aa(lp316
V553571844562120704
p317
aI0
aa(lp318
V553572054511779840
p319
aI1
aa(lp320
V553560647305560064
p321
aI0
aa(lp322
V553570519052980225
p323
aI0
aa(lp324
V553562157968031744
p325
aI0
aa(lp326
V553776086816137217
p327
aI0
aa(lp328
V553559392604684288
p329
aI0
aa(lp330
V553559105387118592
p331
aI0
aa(lp332
V553559389102026752
p333
aI8
aa(lp334
V553563604117913600
p335
aI9
aa(lp336
V553559355438923776
p337
aI0
aa(lp338
V553559484191092737
p339
aI11
aa(lp340
V553559569163902976
p341
aI12
aaa(lp342
(lp343
V553470492565602305
p344
aI0
aa(lp345
V553472346838007810
p346
aI0
aa(lp347
V553471272353402880
p348
aI0
aa(lp349
V553473556345290752
p350
aI0
aa(lp351
V553474160530587648
p352
aI0
aa(lp353
V553471490734039040
p354
aI0
aaa(lp355
(lp356
V552821069036670976
p357
aI0
aa(lp358
V552822679712313344
p359
aI0
aa(lp360
V552824008379736064
p361
aI0
aa(lp362
V552840282094727168
p363
aI2
aa(lp364
V552823713876303872
p365
aI0
aa(lp366
V552822567057510400
p367
aI0
aa(lp368
V552827345435103234
p369
aI0
aa(lp370
V552839935280300032
p371
aI6
aa(lp372
V552829975800578048
p373
aI0
aa(lp374
V552857373015289858
p375
aI8
aa(lp376
V552840084962443264
p377
aI0
aa(lp378
V552840094156349440
p379
aI0
aa(lp380
V552824073244246016
p381
aI0
aa(lp382
V552836806065262594
p383
aI0
aa(lp384
V552827902065385476
p385
aI0
aa(lp386
V552834187426689024
p387
aI14
aaa(lp388
(lp389
V552816020403269632
p390
aI0
aa(lp391
V552830099046035456
p392
aI0
aa(lp393
V552831971370344449
p394
aI0
aa(lp395
V552817849845436416
p396
aI0
aa(lp397
V552817939196678144
p398
aI0
aaa(lp399
(lp400
V553164985460068352
p401
aI0
aa(lp402
V553189559149035520
p403
aI0
aa(lp404
V553188194339258368
p405
aI0
aa(lp406
V553301531340972032
p407
aI0
aa(lp408
V553165585115516928
p409
aI0
aa(lp410
V553165669043548160
p411
aI0
aa(lp412
V553188299758911488
p413
aI0
aa(lp414
V553165237680353280
p415
aI0
aa(lp416
V553166958397771776
p417
aI0
aa(lp418
V553165727231139840
p419
aI0
aa(lp420
V553187846035873793
p421
aI0
aa(lp422
V553167053742694400
p423
aI0
aa(lp424
V553170739592179713
p425
aI0
aa(lp426
V553166961514127360
p427
aI0
aaa(lp428
(lp429
V552811386259386370
p430
aI0
aa(lp431
V552813075133636608
p432
aI0
aa(lp433
V552813563283509248
p434
aI0
aa(lp435
V552812365692289025
p436
aI0
aa(lp437
V552814818986844160
p438
aI0
aa(lp439
V552818696864157697
p440
aI0
aa(lp441
V552811649602961408
p442
aI0
aa(lp443
V552813011338285056
p444
aI0
aa(lp445
V552812526434385921
p446
aI0
aa(lp447
V552813020465074176
p448
aI0
aa(lp449
V552812376375164928
p450
aI0
aa(lp451
V552822921698500608
p452
aI0
aa(lp453
V552812767132934144
p454
aI0
aa(lp455
V552812548366798848
p456
aI0
aa(lp457
V552812482406780928
p458
aI0
aa(lp459
V552811563917123584
p460
aI0
aa(lp461
V552814805456027648
p462
aI0
aa(lp463
V552836538875531265
p464
aI0
aaa(lp465
(lp466
V553476490315431937
p467
aI0
aa(lp468
V553480808947015680
p469
aI0
aa(lp470
V553478083672424448
p471
aI0
aa(lp472
V553479876632936448
p473
aI0
aa(lp474
V553476849196879873
p475
aI0
aaa(lp476
(lp477
V552791196247269378
p478
aI0
aa(lp479
V552794023258099713
p480
aI0
aa(lp481
V552794111447941121
p482
aI0
aa(lp483
V552793325733183488
p484
aI0
aa(lp485
V552792055122886656
p486
aI0
aa(lp487
V552792955052761088
p488
aI0
aa(lp489
V552794765331144705
p490
aI5
aa(lp491
V552796152295219200
p492
aI6
aa(lp493
V552791830476386306
p494
aI0
aa(lp495
V552793021256056833
p496
aI8
aa(lp497
V552792212056993792
p498
aI0
aa(lp499
V552791516360765440
p500
aI0
aa(lp501
V552792023078825984
p502
aI0
aa(lp503
V552795629768814592
p504
aI0
aa(lp505
V552792048173334528
p506
aI0
aa(lp507
V552925665293778945
p508
aI14
aa(lp509
V552792980658987009
p510
aI0
aa(lp511
V552826438798172160
p512
aI16
aa(lp513
V552795069691232258
p514
aI0
aa(lp515
V552791567401238529
p516
aI0
aa(lp517
V552792555944153088
p518
aI0
aa(lp519
V552792656552939523
p520
aI0
aa(lp521
V552792564554678272
p522
aI0
aaa(lp523
(lp524
V552792913910833152
p525
aI0
aa(lp526
V552794232503951360
p527
aI0
aa(lp528
V552793275770613760
p529
aI0
aa(lp530
V552793775740055552
p531
aI0
aa(lp532
V552793675697094657
p533
aI0
aa(lp534
V552805269441622017
p535
aI4
aaa(lp536
(lp537
V552792802309181440
p538
aI0
aa(lp539
V552793899522355200
p540
aI0
aa(lp541
V552795124288073729
p542
aI1
aa(lp543
V552808923707617282
p544
aI0
aa(lp545
V552834504520630274
p546
aI3
aa(lp547
V552793142693744640
p548
aI0
aa(lp549
V552793785747660801
p550
aI0
aa(lp551
V552793901866971136
p552
aI0
aaa(lp553
(lp554
V552832817089236992
p555
aI0
aa(lp556
V552852233901965313
p557
aI0
aa(lp558
V552837389870448640
p559
aI0
aa(lp560
V552837806574170113
p561
aI2
aa(lp562
V552840158329200640
p563
aI0
aa(lp564
V552839062483369984
p565
aI0
aa(lp566
V552839226317094912
p567
aI0
aa(lp568
V552842578539073537
p569
aI6
aa(lp570
V552838782710321152
p571
aI0
aa(lp572
V552839829726060544
p573
aI0
aaa(lp574
(lp575
V553549686129561600
p576
aI0
aa(lp577
V553555102423089152
p578
aI0
aa(lp579
V553550346195574784
p580
aI0
aa(lp581
V553551562732470272
p582
aI0
aa(lp583
V553552662088937472
p584
aI3
aa(lp585
V553552734935601152
p586
aI4
aa(lp587
V553555095317929985
p588
aI5
aa(lp589
V553550000584540160
p590
aI0
aa(lp591
V553550998497918976
p592
aI7
aa(lp593
V553550482925715458
p594
aI7
aa(lp595
V553551156081745920
p596
aI9
aa(lp597
V553567997835882496
p598
aI9
aa(lp599
V553551171802382336
p600
aI7
aa(lp601
V553549946725875712
p602
aI0
aa(lp603
V553574899302670337
p604
aI0
aa(lp605
V553573995858382849
p606
aI0
aa(lp607
V553575543757471744
p608
aI15
aa(lp609
V553574968563625985
p610
aI15
aa(lp611
V553584470264410113
p612
aI15
aa(lp613
V553574442014875648
p614
aI15
aa(lp615
V553581318630821888
p616
aI15
aa(lp617
V553555141731700737
p618
aI0
aaa(lp619
(lp620
V553587013409325058
p621
aI0
aa(lp622
V553587609759666177
p623
aI0
aa(lp624
V553587377835614209
p625
aI0
aa(lp626
V553587741720854528
p627
aI2
aa(lp628
V553587586241794050
p629
aI0
aa(lp630
V553587160088338432
p631
aI0
aa(lp632
V553587387889373186
p633
aI0
aa(lp634
V553588737750605825
p635
aI6
aa(lp636
V553588653562150912
p637
aI6
aa(lp638
V553647665695956992
p639
aI6
aa(lp640
V553587794686513153
p641
aI6
aa(lp642
V553587882741747713
p643
aI6
aa(lp644
V553588971864084481
p645
aI6
aa(lp646
V553587422445846529
p647
aI0
aa(lp648
V553587589417304065
p649
aI0
aa(lp650
V553587395942420480
p651
aI0
aaa(lp652
(lp653
V553538058440941568
p654
aI0
aa(lp655
V553538987554385920
p656
aI0
aa(lp657
V553539730449924096
p658
aI0
aa(lp659
V553540999465926657
p660
aI2
aa(lp661
V553539889237884928
p662
aI2
aa(lp663
V553538823989493760
p664
aI0
aa(lp665
V553539728067551232
p666
aI0
aa(lp667
V553539293076279296
p668
aI0
aa(lp669
V553541618993618945
p670
aI0
aa(lp671
V553538912065712129
p672
aI0
aa(lp673
V553538279073935360
p674
aI0
aa(lp675
V553539141443788800
p676
aI0
aa(lp677
V553538295855349761
p678
aI0
aa(lp679
V553541672471396352
p680
aI0
aa(lp681
V553538596938846208
p682
aI0
aa(lp683
V553539507786903552
p684
aI0
aa(lp685
V553538493738405888
p686
aI0
aa(lp687
V553540050676219904
p688
aI0
aa(lp689
V553541495588802560
p690
aI0
aa(lp691
V553539762624012288
p692
aI0
aaa(lp693
(lp694
V553152395371630592
p695
aI0
aa(lp696
V553211957302816768
p697
aI0
aa(lp698
V553226339743186944
p699
aI0
aa(lp700
V553171130757173249
p701
aI0
aa(lp702
V553170977061081088
p703
aI0
aa(lp704
V553153997226663936
p705
aI0
aa(lp706
V553154805905235968
p707
aI0
aa(lp708
V553195530273456128
p709
aI0
aa(lp710
V553255878628237313
p711
aI0
aa(lp712
V553161717803671552
p713
aI0
aa(lp714
V553171643091398656
p715
aI0
aa(lp716
V553171137782620160
p717
aI0
aa(lp718
V553196346375954433
p719
aI0
aa(lp720
V553220108219609088
p721
aI0
aa(lp722
V553179390176419842
p723
aI0
aa(lp724
V553178733059002368
p725
aI0
aa(lp726
V553170581282377729
p727
aI0
aa(lp728
V553171006244663297
p729
aI0
aa(lp730
V553174304016584704
p731
aI0
aaa(lp732
(lp733
V553489393202499584
p734
aI0
aa(lp735
V553490069609136128
p736
aI0
aa(lp737
V553489581035622401
p738
aI0
aa(lp739
V553489533526765568
p740
aI0
aa(lp741
V553490860369653761
p742
aI0
aa(lp743
V553503751609143296
p744
aI0
aa(lp745
V553491367159017472
p746
aI0
aa(lp747
V553490522523070464
p748
aI0
aa(lp749
V553489471413714944
p750
aI0
aaa(lp751
(lp752
V553160652567498752
p753
aI0
aa(lp754
V553237817086967809
p755
aI0
aa(lp756
V553175352366100482
p757
aI0
aa(lp758
V553227312976908289
p759
aI0
aa(lp760
V553161275904376832
p761
aI0
aa(lp762
V553183997090889730
p763
aI0
aa(lp764
V553170260791427072
p765
aI0
aa(lp766
V553183053523476480
p767
aI0
aa(lp768
V553167760579379201
p769
aI0
aa(lp770
V553169488104140801
p771
aI0
aa(lp772
V553179653238964225
p773
aI0
aa(lp774
V553160945657462785
p775
aI0
aaa(lp776
(lp777
V552982613288157184
p778
aI0
aa(lp779
V552990796702814208
p780
aI0
aa(lp781
V552997008483811328
p782
aI0
aa(lp783
V552992417969082369
p784
aI0
aa(lp785
V552983715224113152
p786
aI0
aaa(lp787
(lp788
V553501357156876290
p789
aI0
aa(lp790
V553501723743223808
p791
aI0
aa(lp792
V553502186999529473
p793
aI1
aa(lp794
V553503365100228609
p795
aI0
aa(lp796
V553502087661645824
p797
aI0
aa(lp798
V553503611104542720
p799
aI4
aa(lp800
V553504747508879360
p801
aI5
aa(lp802
V553501710497628162
p803
aI0
aa(lp804
V553503523539652608
p805
aI0
aa(lp806
V553502133979713536
p807
aI0
aa(lp808
V553502599358722048
p809
aI9
aa(lp810
V553501889254678528
p811
aI0
aa(lp812
V553502135204478976
p813
aI11
aa(lp814
V553501672035856384
p815
aI0
aa(lp816
V553504019742990336
p817
aI13
aa(lp818
V553503331356651521
p819
aI0
aa(lp820
V553503876394262528
p821
aI0
aa(lp822
V553502788819632129
p823
aI0
aa(lp824
V553502205748080640
p825
aI0
aa(lp826
V553503283986563073
p827
aI0
aa(lp828
V553503274176110592
p829
aI0
aaa(lp830
(lp831
V552805488631758849
p832
aI0
aa(lp833
V552806943392145408
p834
aI0
aa(lp835
V552806316855799808
p836
aI0
aa(lp837
V552808282440859648
p838
aI2
aa(lp839
V552845552770351105
p840
aI3
aa(lp841
V552851362808360960
p842
aI4
aa(lp843
V552807316031287296
p844
aI0
aa(lp845
V552811993145835520
p846
aI6
aa(lp847
V553121495791464448
p848
aI7
aa(lp849
V553556666969763841
p850
aI8
aa(lp851
V552813327018385408
p852
aI7
aa(lp853
V552807494545076225
p854
aI0
aa(lp855
V552806438440292352
p856
aI0
aa(lp857
V552805699349016577
p858
aI0
aa(lp859
V552806494283251712
p860
aI0
aa(lp861
V552808456894169089
p862
aI14
aa(lp863
V552814605115064323
p864
aI15
aa(lp865
V552816063369326592
p866
aI16
aa(lp867
V552817834628501505
p868
aI17
aa(lp869
V552818721874378752
p870
aI18
aa(lp871
V552819783675432960
p872
aI19
aa(lp873
V552806469217681409
p874
aI0
aa(lp875
V552808195710664704
p876
aI21
aa(lp877
V552812255805325313
p878
aI22
aa(lp879
V552815468252127232
p880
aI23
aa(lp881
V552807385496973312
p882
aI21
aa(lp883
V552811444119797761
p884
aI25
aa(lp885
V552812691509616642
p886
aI26
aa(lp887
V552815133299187712
p888
aI27
aa(lp889
V552816072902979584
p890
aI28
aa(lp891
V552819966006001664
p892
aI29
aa(lp893
V552822741250736128
p894
aI27
aa(lp895
V552815313394229253
p896
aI27
aa(lp897
V552810267772334080
p898
aI25
aa(lp899
V552812435321536512
p900
aI33
aa(lp901
V552813227793321984
p902
aI34
aa(lp903
V552814935688740867
p904
aI35
aa(lp905
V552815524741001217
p906
aI36
aa(lp907
V552816766414381057
p908
aI37
aa(lp909
V552848069629575168
p910
aI36
aa(lp911
V552900298516484098
p912
aI39
aa(lp913
V552848557766873090
p914
aI36
aa(lp915
V552900577697751041
p916
aI41
aa(lp917
V552813949427544064
p918
aI35
aa(lp919
V552814516262555648
p920
aI43
aa(lp921
V552815897425891328
p922
aI44
aa(lp923
V552816386154590208
p924
aI45
aa(lp925
V552814354588909569
p926
aI43
aa(lp927
V552814843288223744
p928
aI47
aa(lp929
V552816383185010688
p930
aI48
aa(lp931
V552816281737363458
p932
aI48
aa(lp933
V552816726144864258
p934
aI50
aa(lp935
V552817356779433984
p936
aI51
aa(lp937
V552817984524152832
p938
aI52
aa(lp939
V552818473806491650
p940
aI53
aa(lp941
V552818300124545025
p942
aI53
aa(lp943
V552818667293904898
p944
aI55
aa(lp945
V552819494372921346
p946
aI56
aa(lp947
V552819928315617281
p948
aI57
aa(lp949
V552820213129809921
p950
aI58
aa(lp951
V552820677338595328
p952
aI59
aa(lp953
V552819812435369987
p954
aI57
aa(lp955
V552819213165801472
p956
aI56
aa(lp957
V552816942193467396
p958
aI51
aa(lp959
V552815787484778497
p960
aI48
aa(lp961
V552816366101614592
p962
aI64
aa(lp963
V552816957439741952
p964
aI65
aa(lp965
V552817506964873216
p966
aI66
aa(lp967
V552819015282737153
p968
aI67
aa(lp969
V552819482435932160
p970
aI68
aa(lp971
V552816676249403393
p972
aI65
aa(lp973
V552816583614013440
p974
aI64
aa(lp975
V552817149673082882
p976
aI71
aa(lp977
V552817607452016640
p978
aI72
aa(lp979
V552817983572017153
p980
aI72
aa(lp981
V552817735160176641
p982
aI72
aa(lp983
V552818327521734657
p984
aI75
aa(lp985
V552818958533816321
p986
aI76
aa(lp987
V552808637719408641
p988
aI21
aa(lp989
V552811728447078400
p990
aI78
aa(lp991
V552812476019269632
p992
aI79
aa(lp993
V552844861322592256
p994
aI78
aa(lp995
V552851028287422464
p996
aI81
aa(lp997
V552805847777415168
p998
aI0
aa(lp999
V552807670710038528
p1000
aI0
aa(lp1001
V552805838323478528
p1002
aI0
aa(lp1003
V552807055275220996
p1004
aI85
aa(lp1005
V552805987053490179
p1006
aI0
aa(lp1007
V552807834078171136
p1008
aI87
aa(lp1009
V552809757225287681
p1010
aI88
aa(lp1011
V552810175049244672
p1012
aI89
aa(lp1013
V552810426422267904
p1014
aI90
aa(lp1015
V552809852834418688
p1016
aI88
aaa(lp1017
(lp1018
V552810448324943872
p1019
aI0
aa(lp1020
V552814682839326720
p1021
aI0
aa(lp1022
V552812627378724864
p1023
aI0
aa(lp1024
V552810626503176192
p1025
aI0
aa(lp1026
V552811928188645376
p1027
aI0
aa(lp1028
V552811835057909761
p1029
aI0
aa(lp1030
V552817687257415681
p1031
aI5
aa(lp1032
V552811357889134592
p1033
aI0
aa(lp1034
V552810702990475265
p1035
aI0
aa(lp1036
V552811730204499969
p1037
aI0
aa(lp1038
V552813350745153536
p1039
aI0
aa(lp1040
V552811887684251648
p1041
aI0
aa(lp1042
V552811591683821568
p1043
aI0
aa(lp1044
V552811541884858368
p1045
aI0
aa(lp1046
V552812469958111232
p1047
aI0
aa(lp1048
V552811450226733058
p1049
aI0
aa(lp1050
V552814012791279617
p1051
aI0
aa(lp1052
V552813534334038017
p1053
aI0
aa(lp1054
V552811198543331328
p1055
aI0
aaa(lp1056
(lp1057
V553107921081749504
p1058
aI0
aa(lp1059
V553116396469510144
p1060
aI0
aa(lp1061
V553111518230106112
p1062
aI0
aa(lp1063
V553115272031113216
p1064
aI0
aa(lp1065
V553132986087268352
p1066
aI0
aa(lp1067
V553109367042887680
p1068
aI0
aaa(lp1069
(lp1070
V553543369604210689
p1071
aI0
aa(lp1072
V553543671308886016
p1073
aI0
aa(lp1074
V553543653424386049
p1075
aI0
aa(lp1076
V553545251651342337
p1077
aI0
aa(lp1078
V553544356700094464
p1079
aI0
aa(lp1080
V553549440263675904
p1081
aI0
aa(lp1082
V553549946738446336
p1083
aI5
aa(lp1084
V553552954297692160
p1085
aI6
aa(lp1086
V553553099470946304
p1087
aI7
aa(lp1088
V553544770430464000
p1089
aI0
aa(lp1090
V553547724860456961
p1091
aI0
aa(lp1092
V553548166629691392
p1093
aI10
aa(lp1094
V553548306383912960
p1095
aI11
aa(lp1096
V553548731690520576
p1097
aI12
aa(lp1098
V553550815940837376
p1099
aI10
aa(lp1100
V553551580801536000
p1101
aI10
aa(lp1102
V553548128138584065
p1103
aI10
aa(lp1104
V553548084656214016
p1105
aI10
aaa(lp1106
(lp1107
V553508098825261056
p1108
aI0
aa(lp1109
V553511652587360256
p1110
aI0
aa(lp1111
V553518690872745985
p1112
aI0
aa(lp1113
V553521549395771392
p1114
aI0
aa(lp1115
V553538244923883520
p1116
aI3
aa(lp1117
V553555326125895680
p1118
aI4
aa(lp1119
V553573926786580480
p1120
aI5
aa(lp1121
V553551811282751488
p1122
aI0
aa(lp1123
V553513832971513856
p1124
aI0
aa(lp1125
V553509365081456640
p1126
aI0
aa(lp1127
V553509546602553344
p1128
aI0
aa(lp1129
V553538031513530368
p1130
aI0
aa(lp1131
V553540518853242880
p1132
aI11
aa(lp1133
V553540761632120832
p1134
aI12
aa(lp1135
V553541311484014592
p1136
aI13
aa(lp1137
V553541660408545280
p1138
aI14
aa(lp1139
V553542076999409664
p1140
aI15
aa(lp1141
V553542207731662850
p1142
aI16
aa(lp1143
V553524499803815937
p1144
aI0
aaa(lp1145
(lp1146
V553534838880608256
p1147
aI0
aa(lp1148
V553535581586993152
p1149
aI0
aa(lp1150
V553539103879200769
p1151
aI0
aa(lp1152
V553535440821575682
p1153
aI0
aa(lp1154
V553535415073132544
p1155
aI0
aa(lp1156
V553535353790152705
p1157
aI0
aaa(lp1158
(lp1159
V552793679082311680
p1160
aI0
aa(lp1161
V552794951487352832
p1162
aI0
aa(lp1163
V552798473389867009
p1164
aI0
aa(lp1165
V552800063756709888
p1166
aI2
aa(lp1167
V552798644244860928
p1168
aI0
aa(lp1169
V552796160101220352
p1170
aI0
aa(lp1171
V552796679322492928
p1172
aI5
aa(lp1173
V552796934134845440
p1174
aI5
aa(lp1175
V552796638436397056
p1176
aI5
aa(lp1177
V552801740652036096
p1178
aI0
aa(lp1179
V552802770873761793
p1180
aI9
aa(lp1181
V552800628012224512
p1182
aI0
aaa(lp1183
(lp1184
V552785375161499649
p1185
aI0
aa(lp1186
V552785851655393281
p1187
aI0
aa(lp1188
V552788073340489728
p1189
aI0
aa(lp1190
V552785877748158464
p1191
aI0
aaa(lp1192
(lp1193
V553503184174710784
p1194
aI0
aa(lp1195
V553504209635536896
p1196
aI0
aa(lp1197
V553505371260588032
p1198
aI0
aa(lp1199
V553507708574244864
p1200
aI0
aa(lp1201
V553506057432342528
p1202
aI0
aa(lp1203
V553506283958333440
p1204
aI0
aa(lp1205
V553505863827079168
p1206
aI0
aa(lp1207
V553503820425093120
p1208
aI0
aa(lp1209
V553504861321703424
p1210
aI0
aa(lp1211
V553504854794969088
p1212
aI0
aa(lp1213
V553507716329529344
p1214
aI0
aa(lp1215
V553504306998300672
p1216
aI0
aa(lp1217
V553503712157904898
p1218
aI0
aa(lp1219
V553504624830066688
p1220
aI12
aa(lp1221
V553503810073952257
p1222
aI0
aa(lp1223
V553503409807327232
p1224
aI0
aaa(lp1225
(lp1226
V553576010898497536
p1227
aI0
aa(lp1228
V553578217387614208
p1229
aI0
aa(lp1230
V553577770983645186
p1231
aI0
aa(lp1232
V553577813056716800
p1233
aI0
aa(lp1234
V553577721939251201
p1235
aI0
aa(lp1236
V553579107620237312
p1237
aI0
aa(lp1238
V553577189837258752
p1239
aI0
aa(lp1240
V553576829345628160
p1241
aI0
aa(lp1242
V553576199268876288
p1243
aI0
aa(lp1244
V553577135777255424
p1245
aI0
aa(lp1246
V553577990060539904
p1247
aI9
aa(lp1248
V553577850461519872
p1249
aI0
aa(lp1250
V553576559085240320
p1251
aI0
aaa(lp1252
(lp1253
V552978099357237248
p1254
aI0
aa(lp1255
V553199352060325888
p1256
aI0
aa(lp1257
V552988724288827395
p1258
aI0
aa(lp1259
V552982992248123393
p1260
aI0
aaa(lp1261
(lp1262
V553589051044151296
p1263
aI0
aa(lp1264
V553596772401299456
p1265
aI0
aa(lp1266
V553590068271529985
p1267
aI0
aa(lp1268
V553589785202544640
p1269
aI0
aa(lp1270
V553589370721013760
p1271
aI0
aa(lp1272
V553589976416260096
p1273
aI0
aa(lp1274
V553602592828563456
p1275
aI0
aa(lp1276
V553589181436284930
p1277
aI0
aaa(lp1278
(lp1279
V553512735192141826
p1280
aI0
aa(lp1281
V553820631087988736
p1282
aI0
aa(lp1283
V553513916572381185
p1284
aI0
aa(lp1285
V553513642478813184
p1286
aI0
aa(lp1287
V553514819085946881
p1288
aI0
aa(lp1289
V553516393791238145
p1290
aI0
aaa(lp1291
(lp1292
V553506608203169792
p1293
aI0
aa(lp1294
V553507679621378049
p1295
aI0
aa(lp1296
V553507208382930944
p1297
aI0
aa(lp1298
V553507538860126211
p1299
aI0
aa(lp1300
V553508411178885121
p1301
aI0
aa(lp1302
V553509397063041024
p1303
aI0
aa(lp1304
V553507700546367488
p1305
aI0
aa(lp1306
V553507495604678658
p1307
aI0
aa(lp1308
V553522189337890816
p1309
aI7
aa(lp1310
V553508438224142336
p1311
aI0
aa(lp1312
V553508241981046784
p1313
aI0
aa(lp1314
V553512763906334722
p1315
aI10
aa(lp1316
V553526618720075776
p1317
aI10
aa(lp1318
V553508636505673729
p1319
aI0
aa(lp1320
V553507613900820481
p1321
aI0
aa(lp1322
V553508114436476929
p1323
aI14
aa(lp1324
V553507375211364352
p1325
aI0
aa(lp1326
V553507937121878016
p1327
aI0
aa(lp1328
V553507283108655104
p1329
aI0
aa(lp1330
V553507222324801536
p1331
aI0
aa(lp1332
V553508576422285312
p1333
aI0
aa(lp1334
V553507344932294657
p1335
aI0
aa(lp1336
V553507133464248320
p1337
aI0
aaa(lp1338
(lp1339
V553586860334010368
p1340
aI0
aa(lp1341
V553587067712995328
p1342
aI0
aa(lp1343
V553587039598571523
p1344
aI0
aa(lp1345
V553587361398132736
p1346
aI0
aa(lp1347
V553587398169591809
p1348
aI0
aa(lp1349
V553587620006346752
p1350
aI0
aa(lp1351
V553586932727693312
p1352
aI0
aa(lp1353
V553587407980077057
p1354
aI0
aa(lp1355
V553587040886206466
p1356
aI0
aa(lp1357
V553587445921759232
p1358
aI0
aa(lp1359
V553587132045213696
p1360
aI0
aa(lp1361
V553586988419649536
p1362
aI0
aa(lp1363
V553587188500529152
p1364
aI0
aa(lp1365
V553587000578932737
p1366
aI0
aa(lp1367
V553587150428856320
p1368
aI0
aa(lp1369
V553587214987558912
p1370
aI0
aa(lp1371
V553587034762534913
p1372
aI0
aa(lp1373
V553586964805713920
p1374
aI0
aa(lp1375
V553587467409162240
p1376
aI0
aa(lp1377
V553587298215133185
p1378
aI0
aaa(lp1379
(lp1380
V553548567420628992
p1381
aI0
aa(lp1382
V553559162018611201
p1383
aI0
aa(lp1384
V553560292635189248
p1385
aI1
aa(lp1386
V553561410920521729
p1387
aI2
aa(lp1388
V553562623200210944
p1389
aI3
aa(lp1390
V553565149790224387
p1391
aI4
aa(lp1392
V553554289835376643
p1393
aI0
aa(lp1394
V553552395704082432
p1395
aI0
aa(lp1396
V553552625724301314
p1397
aI0
aa(lp1398
V553559527216656385
p1399
aI0
aa(lp1400
V553552287889494017
p1401
aI0
aa(lp1402
V553553255255781376
p1403
aI0
aa(lp1404
V553549149787140096
p1405
aI0
aa(lp1406
V553550408346779648
p1407
aI12
aa(lp1408
V553551840428949504
p1409
aI13
aa(lp1410
V553552036915335169
p1411
aI14
aa(lp1412
V553553247953514496
p1413
aI15
aa(lp1414
V553553754424115200
p1415
aI16
aa(lp1416
V553554620229115905
p1417
aI17
aa(lp1418
V553555066754695168
p1419
aI18
aa(lp1420
V553555725084270593
p1421
aI19
aa(lp1422
V553552100417110017
p1423
aI14
aaa(lp1424
(lp1425
V553575232867672064
p1426
aI0
aa(lp1427
V553582539034464256
p1428
aI0
aa(lp1429
V553576578933075968
p1430
aI0
aa(lp1431
V553580837477056514
p1432
aI0
aa(lp1433
V553578126320861184
p1434
aI0
aa(lp1435
V553575800122118144
p1436
aI0
aa(lp1437
V553578353349758976
p1438
aI0
aa(lp1439
V553579370468474880
p1440
aI6
aa(lp1441
V553583385005006850
p1442
aI0
aaa(lp1443
(lp1444
V552984502063337472
p1445
aI0
aa(lp1446
V553091815218237440
p1447
aI0
aa(lp1448
V552989544589430784
p1449
aI0
aaa(lp1450
(lp1451
V553221600955621376
p1452
aI0
aa(lp1453
V553262052899164161
p1454
aI0
aa(lp1455
V553228413922967552
p1456
aI0
aaa(lp1457
(lp1458
V553544694765215745
p1459
aI0
aa(lp1460
V553545342055354368
p1461
aI0
aa(lp1462
V553546903842222080
p1463
aI0
aa(lp1464
V553547771127812096
p1465
aI0
aaa(lp1466
(lp1467
V552848620375261184
p1468
aI0
aa(lp1469
V552848736897216513
p1470
aI0
aa(lp1471
V552857418062127104
p1472
aI0
aa(lp1473
V552848904426098689
p1474
aI0
aa(lp1475
V552849973470314496
p1476
aI0
aa(lp1477
V552848723001475073
p1478
aI0
aa(lp1479
V552850544797446144
p1480
aI0
aa(lp1481
V552852606234947584
p1482
aI6
aa(lp1483
V552850359266197504
p1484
aI0
aa(lp1485
V552852018864218112
p1486
aI0
aa(lp1487
V552850999443202049
p1488
aI0
aa(lp1489
V552874999522934784
p1490
aI0
aa(lp1491
V552851266754596865
p1492
aI0
aa(lp1493
V552858826043424768
p1494
aI0
aa(lp1495
V552853646744899584
p1496
aI0
aaa(lp1497
(lp1498
V553486439129038848
p1499
aI0
aa(lp1500
V553487881113989120
p1501
aI0
aa(lp1502
V553487052776693761
p1503
aI0
aa(lp1504
V553486913970397186
p1505
aI0
aa(lp1506
V553543395717550080
p1507
aI0
aa(lp1508
V553486598328041472
p1509
aI0
aa(lp1510
V553487150550089728
p1511
aI0
aa(lp1512
V553487414409564160
p1513
aI0
aa(lp1514
V553486812787007488
p1515
aI0
aaa(lp1516
(lp1517
V553544252563935234
p1518
aI0
aa(lp1519
V553544746430652416
p1520
aI0
aa(lp1521
V553545546947104768
p1522
aI0
aa(lp1523
V553560398365212672
p1524
aI0
aa(lp1525
V553544735131201536
p1526
aI0
aa(lp1527
V553557332261490688
p1528
aI0
aa(lp1529
V553550704888279041
p1530
aI0
aa(lp1531
V553544568130768897
p1532
aI0
aa(lp1533
V553545985624784896
p1534
aI0
aa(lp1535
V553546195772407808
p1536
aI0
aa(lp1537
V553549302187192320
p1538
aI0
aa(lp1539
V553555098157060097
p1540
aI0
aa(lp1541
V553545099905601536
p1542
aI0
aa(lp1543
V554305263046754305
p1544
aI0
aa(lp1545
V553550518531141632
p1546
aI0
aaa(lp1547
(lp1548
V552834961762709505
p1549
aI0
aa(lp1550
V552836509074591748
p1551
aI0
aa(lp1552
V552836375670562816
p1553
aI0
aa(lp1554
V552835091714416640
p1555
aI0
aa(lp1556
V552835533009727488
p1557
aI0
aa(lp1558
V552837270953529345
p1559
aI0
aa(lp1560
V552838224981553153
p1561
aI0
aa(lp1562
V552835146844737537
p1563
aI0
aa(lp1564
V552849852338831360
p1565
aI0
aa(lp1566
V552840744210161664
p1567
aI0
aa(lp1568
V552841806245679104
p1569
aI9
aa(lp1570
V552844369649098754
p1571
aI10
aa(lp1572
V552844745647460352
p1573
aI11
aa(lp1574
V552860931026604032
p1575
aI9
aa(lp1576
V552845561896771585
p1577
aI9
aa(lp1578
V552836259433828352
p1579
aI0
aa(lp1580
V552843614389559296
p1581
aI0
aaa(lp1582
(lp1583
V552806757672964097
p1584
aI0
aa(lp1585
V552823438457311232
p1586
aI0
aa(lp1587
V552810796884189184
p1588
aI0
aa(lp1589
V552810800164139008
p1590
aI2
aa(lp1591
V552819464711184384
p1592
aI0
aa(lp1593
V552812110678196224
p1594
aI0
aa(lp1595
V552808137737383936
p1596
aI0
aa(lp1597
V552812322075729920
p1598
aI0
aa(lp1599
V552825292184514561
p1600
aI0
aa(lp1601
V552808047643729920
p1602
aI0
aa(lp1603
V552905510039465985
p1604
aI0
aa(lp1605
V552807311191048193
p1606
aI0
aa(lp1607
V552807298192510977
p1608
aI0
aaa(lp1609
(lp1610
V553474188259102720
p1611
aI0
aa(lp1612
V553482152743288833
p1613
aI0
aa(lp1614
V553506819294121985
p1615
aI0
aa(lp1616
V553508132459393024
p1617
aI0
aa(lp1618
V553488128364007424
p1619
aI0
aa(lp1620
V553478423411441664
p1621
aI0
aa(lp1622
V553479692133470209
p1623
aI0
aa(lp1624
V553536816238710784
p1625
aI0
aa(lp1626
V553475360936165376
p1627
aI0
aaa(lp1628
(lp1629
V552996335319007233
p1630
aI0
aa(lp1631
V552996575396765696
p1632
aI0
aa(lp1633
V553005429492445184
p1634
aI0
aa(lp1635
V553023430443167746
p1636
aI2
aa(lp1637
V553008182050947072
p1638
aI2
aa(lp1639
V553008434627362816
p1640
aI4
aa(lp1641
V553008784692756480
p1642
aI5
aa(lp1643
V553009507186393088
p1644
aI6
aa(lp1645
V553009820409024512
p1646
aI7
aa(lp1647
V553010394327834625
p1648
aI8
aa(lp1649
V553010804069781505
p1650
aI9
aa(lp1651
V553011245737992193
p1652
aI10
aa(lp1653
V553023915963191296
p1654
aI9
aa(lp1655
V553042679412436992
p1656
aI0
aa(lp1657
V552997646076739585
p1658
aI0
aa(lp1659
V553004470440058881
p1660
aI0
aaa(lp1661
(lp1662
V553588178687655936
p1663
aI0
aa(lp1664
V553588570368532480
p1665
aI0
aa(lp1666
V553588869409832960
p1667
aI0
aa(lp1668
V553588472330452992
p1669
aI0
aa(lp1670
V553589955029512192
p1671
aI0
aa(lp1672
V553591897458237440
p1673
aI0
aa(lp1674
V553589124125323264
p1675
aI0
aa(lp1676
V553589038196981760
p1677
aI0
aa(lp1678
V553588358044483584
p1679
aI0
aa(lp1680
V553590627343302657
p1681
aI0
aa(lp1682
V553593015416008704
p1683
aI0
aaa(lp1684
(lp1685
V553461741917863936
p1686
aI0
aa(lp1687
V553467937575952384
p1688
aI0
aa(lp1689
V553471188530249730
p1690
aI0
aa(lp1691
V553464272043638785
p1692
aI0
aa(lp1693
V553503688946225152
p1694
aI0
aa(lp1695
V553462405800288256
p1696
aI0
aa(lp1697
V554412391279374336
p1698
aI0
aa(lp1699
V554282491549196289
p1700
aI0
aa(lp1701
V553469592488931328
p1702
aI0
aa(lp1703
V553462961365581824
p1704
aI0
aa(lp1705
V553504117230800896
p1706
aI9
aa(lp1707
V553514398871216128
p1708
aI10
aa(lp1709
V553535342049902592
p1710
aI0
aa(lp1711
V553463489209978880
p1712
aI0
aa(lp1713
V553463231386497024
p1714
aI0
aa(lp1715
V553496340580556800
p1716
aI0
aaa(lp1717
(lp1718
V553476880339599360
p1719
aI0
aa(lp1720
V555631356286234624
p1721
aI0
aaa(lp1722
(lp1723
V552814494381256704
p1724
aI0
aa(lp1725
V552816523593916416
p1726
aI0
aa(lp1727
V552815415949557760
p1728
aI0
aa(lp1729
V552814812363620352
p1730
aI0
aa(lp1731
V552814927829016577
p1732
aI0
aa(lp1733
V552817606194135041
p1734
aI0
aa(lp1735
V552821574298918913
p1736
aI0
aa(lp1737
V552824657028874241
p1738
aI0
aa(lp1739
V552818286803443713
p1740
aI0
aa(lp1741
V552821795628531715
p1742
aI0
aa(lp1743
V552816420074291200
p1744
aI0
aaa(lp1745
(lp1746
V553587672137334785
p1747
aI0
aa(lp1748
V553592680866152449
p1749
aI0
aa(lp1750
V553595514739253248
p1751
aI1
aa(lp1752
V553592819622092800
p1753
aI1
aa(lp1754
V553593105233248257
p1755
aI3
aa(lp1756
V553593746865258497
p1757
aI4
aa(lp1758
V553594432743018496
p1759
aI5
aa(lp1760
V553595330009518080
p1761
aI6
aa(lp1762
V553596198956056576
p1763
aI7
aa(lp1764
V553597910504714240
p1765
aI8
aa(lp1766
V553589804492148736
p1767
aI0
aa(lp1768
V553589786775412737
p1769
aI0
aa(lp1770
V553588931707822080
p1771
aI0
aa(lp1772
V553590107807428608
p1773
aI0
aa(lp1774
V553589615379374080
p1775
aI0
aa(lp1776
V553588141576454144
p1777
aI0
aa(lp1778
V553596969978179584
p1779
aI15
aa(lp1780
V553589201347035136
p1781
aI0
aa(lp1782
V553587884263874561
p1783
aI0
aa(lp1784
V553588033313046528
p1785
aI0
aa(lp1786
V553588238867517441
p1787
aI0
aa(lp1788
V553588198577025026
p1789
aI0
aa(lp1790
V553587974680875008
p1791
aI0
aaa(lp1792
(lp1793
V553535829017370625
p1794
aI0
aa(lp1795
V553551642369753088
p1796
aI0
aa(lp1797
V553536495433580545
p1798
aI0
aa(lp1799
V553541692243316737
p1800
aI0
aa(lp1801
V553536361786277888
p1802
aI0
aaa(lp1803
(lp1804
V553579224402235393
p1805
aI0
aa(lp1806
V553582297551998976
p1807
aI0
aa(lp1808
V553579820563849218
p1809
aI0
aa(lp1810
V553580255647399936
p1811
aI0
aa(lp1812
V553580063586000896
p1813
aI0
aa(lp1814
V553585746754682880
p1815
aI0
aa(lp1816
V553579500139589632
p1817
aI0
aa(lp1818
V553580571985580032
p1819
aI0
aa(lp1820
V553585548204720128
p1821
aI7
aa(lp1822
V553587353437356032
p1823
aI8
aa(lp1824
V553587865351753730
p1825
aI9
aa(lp1826
V553587585126117376
p1827
aI9
aa(lp1828
V553586766419329024
p1829
aI8
aa(lp1830
V553587243085209602
p1831
aI12
aa(lp1832
V553587104656404481
p1833
aI8
aa(lp1834
V553580917898231808
p1835
aI7
aa(lp1836
V553585472145211392
p1837
aI15
aa(lp1838
V553588028925804544
p1839
aI7
aa(lp1840
V553588188648714240
p1841
aI7
aa(lp1842
V553599279097733120
p1843
aI18
aa(lp1844
V553579540602429440
p1845
aI0
aa(lp1846
V553584047189159937
p1847
aI20
aa(lp1848
V553585181517701120
p1849
aI21
aa(lp1850
V553580075082203136
p1851
aI0
aa(lp1852
V553580540662910976
p1853
aI0
aaa(lp1854
(lp1855
V553478289474740224
p1856
aI0
aa(lp1857
V553482001651470336
p1858
aI0
aa(lp1859
V553485100932157440
p1860
aI0
aa(lp1861
V554212158133633025
p1862
aI0
aa(lp1863
V553481697124052993
p1864
aI0
aa(lp1865
V553481203886460928
p1866
aI0
aa(lp1867
V553481569675911168
p1868
aI5
aaa(lp1869
(lp1870
V553467311261503488
p1871
aI0
aa(lp1872
V553481000379248640
p1873
aI0
aa(lp1874
V553468547184467969
p1875
aI0
aaa(lp1876
(lp1877
V552783667052167168
p1878
aI0
aa(lp1879
V552792862610694144
p1880
aI0
aa(lp1881
V552785374507175936
p1882
aI0
aa(lp1883
V552786226546495488
p1884
aI2
aa(lp1885
V552789345628069888
p1886
aI3
aa(lp1887
V552943855021330432
p1888
aI0
aaa(lp1889
(lp1890
V552791578893619200
p1891
aI0
aa(lp1892
V552795831599120384
p1893
aI0
aa(lp1894
V552793048510648320
p1895
aI0
aa(lp1896
V552822387448631296
p1897
aI0
aa(lp1898
V552825507340091392
p1899
aI3
aa(lp1900
V552791675379400705
p1901
aI0
aa(lp1902
V552824748879925248
p1903
aI5
aa(lp1904
V552794374950887425
p1905
aI0
aa(lp1906
V552808830598262785
p1907
aI0
aa(lp1908
V552792030225920000
p1909
aI0
aa(lp1910
V552796307627470848
p1911
aI0
aa(lp1912
V552795016725532672
p1913
aI0
aa(lp1914
V552792351413133312
p1915
aI0
aa(lp1916
V552818611015131136
p1917
aI0
aa(lp1918
V552826072237346817
p1919
aI13
aa(lp1920
V552796077561094144
p1921
aI0
aa(lp1922
V552795888134144001
p1923
aI0
aa(lp1924
V552797785427558401
p1925
aI0
aa(lp1926
V552810884314443776
p1927
aI0
aa(lp1928
V552795898196291584
p1929
aI0
aa(lp1930
V552792826216329217
p1931
aI0
aaa(lp1932
(lp1933
V553550301886955520
p1934
aI0
aa(lp1935
V553551676700098561
p1936
aI0
aa(lp1937
V553551949745119233
p1938
aI0
aa(lp1939
V553550971167834113
p1940
aI0
aa(lp1941
V553550610675818496
p1942
aI0
aa(lp1943
V553551446164402176
p1944
aI0
aa(lp1945
V553550697128796161
p1946
aI0
aa(lp1947
V553551887270547459
p1948
aI0
aa(lp1949
V553552452054556672
p1950
aI7
aa(lp1951
V553550497852821504
p1952
aI0
aa(lp1953
V553550508565479425
p1954
aI0
aaa(lp1955
(lp1956
V553590459688570880
p1957
aI0
aa(lp1958
V553590981967511553
p1959
aI0
aa(lp1960
V553590836588740609
p1961
aI0
aa(lp1962
V553590965307707393
p1963
aI0
aa(lp1964
V553591570680004608
p1965
aI0
aa(lp1966
V553591098074226688
p1967
aI0
aa(lp1968
V553591453675696129
p1969
aI0
aa(lp1970
V553591990856986624
p1971
aI0
aa(lp1972
V553590974044069888
p1973
aI0
aa(lp1974
V553592018270978049
p1975
aI0
aa(lp1976
V553591555479461888
p1977
aI0
aa(lp1978
V553591179078410240
p1979
aI0
aa(lp1980
V553591766893727744
p1981
aI0
aa(lp1982
V553591626485215232
p1983
aI0
aa(lp1984
V553591360327282689
p1985
aI0
aa(lp1986
V553590957317566466
p1987
aI0
aa(lp1988
V553591134807920640
p1989
aI0
aa(lp1990
V553590917316505600
p1991
aI0
aa(lp1992
V553591653404270592
p1993
aI0
aaa(lp1994
(lp1995
V553587303172833280
p1996
aI0
aa(lp1997
V553587686762479617
p1998
aI0
aa(lp1999
V553588413195382784
p2000
aI0
aa(lp2001
V553598661863563264
p2002
aI2
aa(lp2003
V553588252372779008
p2004
aI0
aa(lp2005
V553589500572491776
p2006
aI0
aa(lp2007
V553587370822750210
p2008
aI0
aa(lp2009
V553592274991714306
p2010
aI6
aa(lp2011
V553588210769883136
p2012
aI0
aa(lp2013
V553588708826304514
p2014
aI0
aa(lp2015
V553587829977399296
p2016
aI0
aa(lp2017
V553589221328715776
p2018
aI0
aa(lp2019
V553587586703171584
p2020
aI0
aa(lp2021
V553587863921917953
p2022
aI12
aa(lp2023
V553587860620996608
p2024
aI0
aa(lp2025
V553588519848132609
p2026
aI0
aa(lp2027
V553588231238090752
p2028
aI0
aa(lp2029
V553587678726594560
p2030
aI0
aa(lp2031
V553589677433712640
p2032
aI0
aa(lp2033
V553588250087268352
p2034
aI0
aaa(lp2035
(lp2036
V552806309540528128
p2037
aI0
aa(lp2038
V552806751746396160
p2039
aI0
aa(lp2040
V552808821434089472
p2041
aI0
aa(lp2042
V552808549349199872
p2043
aI0
aa(lp2044
V552807393453547522
p2045
aI0
aa(lp2046
V552808156468768769
p2047
aI4
aa(lp2048
V552807638233120769
p2049
aI0
aa(lp2050
V552808138831708160
p2051
aI0
aa(lp2052
V552810655657787392
p2053
aI0
aa(lp2054
V552811152456318976
p2055
aI8
aa(lp2056
V552806614973960192
p2057
aI0
aa(lp2058
V552808387415900160
p2059
aI0
aa(lp2060
V552811106046324736
p2061
aI11
aa(lp2062
V552812220438945793
p2063
aI12
aa(lp2064
V552811900686176257
p2065
aI12
aa(lp2066
V552812425758912512
p2067
aI14
aa(lp2068
V552813608694857730
p2069
aI15
aa(lp2070
V552814686149017600
p2071
aI16
aa(lp2072
V552812407064899585
p2073
aI14
aa(lp2074
V552812983370268672
p2075
aI18
aa(lp2076
V552814637696450560
p2077
aI19
aa(lp2078
V552814267020636160
p2079
aI19
aa(lp2080
V552814555764506624
p2081
aI21
aa(lp2082
V553219824059310080
p2083
aI12
aa(lp2084
V553221961740857344
p2085
aI23
aa(lp2086
V553224135334051840
p2087
aI24
aa(lp2088
V553225926436089856
p2089
aI25
aa(lp2090
V553226523650437120
p2091
aI26
aa(lp2092
V552809081233080320
p2093
aI11
aa(lp2094
V552808109551263744
p2095
aI0
aa(lp2096
V552808399885185024
p2097
aI29
aa(lp2098
V552812099294863362
p2099
aI29
aa(lp2100
V552806767625641984
p2101
aI0
aa(lp2102
V552827794976022528
p2103
aI32
aa(lp2104
V552807952315207680
p2105
aI32
aa(lp2106
V552808280074878979
p2107
aI34
aa(lp2108
V552808639283486722
p2109
aI35
aa(lp2110
V552817422366154752
p2111
aI32
aa(lp2112
V552808046938697729
p2113
aI0
aaa(lp2114
(lp2115
V552833028201144320
p2116
aI0
aa(lp2117
V552838040503472128
p2118
aI0
aa(lp2119
V552836259283218434
p2120
aI0
aa(lp2121
V552877204304977921
p2122
aI0
aa(lp2123
V552833464933052416
p2124
aI0
aa(lp2125
V552834026948415488
p2126
aI0
aa(lp2127
V552851863671169024
p2128
aI0
aa(lp2129
V552833272724852736
p2130
aI0
aa(lp2131
V552835278625177600
p2132
aI7
aa(lp2133
V552833887261691905
p2134
aI0
aa(lp2135
V552840222636265472
p2136
aI0
aa(lp2137
V552876728326971393
p2138
aI0
aa(lp2139
V552833319747194882
p2140
aI0
aa(lp2141
V552842163160367104
p2142
aI0
aa(lp2143
V552842861209993217
p2144
aI0
aa(lp2145
V552833762174992384
p2146
aI0
aa(lp2147
V552836882770690049
p2148
aI0
aaa(lp2149
(lp2150
V552792544132997121
p2151
aI0
aa(lp2152
V552794125167493120
p2153
aI0
aa(lp2154
V552800910670569472
p2155
aI0
aa(lp2156
V552795993553764354
p2157
aI0
aa(lp2158
V552798917541511169
p2159
aI3
aa(lp2160
V552805237510385664
p2161
aI4
aa(lp2162
V552805439474515968
p2163
aI5
aa(lp2164
V552816964436230144
p2165
aI5
aa(lp2166
V552805557896482816
p2167
aI5
aa(lp2168
V552806438629048320
p2169
aI8
aa(lp2170
V552806661149425664
p2171
aI9
aa(lp2172
V552806259767123968
p2173
aI8
aa(lp2174
V552806489363337217
p2175
aI11
aa(lp2176
V552808594228670465
p2177
aI11
aa(lp2178
V552805909425307648
p2179
aI8
aa(lp2180
V552806009157464064
p2181
aI8
aa(lp2182
V552798994456674304
p2183
aI3
aa(lp2184
V552792742842363905
p2185
aI0
aaa(lp2186
(lp2187
V553505242554175489
p2188
aI0
aa(lp2189
V553693040649334785
p2190
aI0
aa(lp2191
V553703181440786435
p2192
aI1
aa(lp2193
V553824308959928320
p2194
aI0
aa(lp2195
V553511231735099392
p2196
aI0
aa(lp2197
V553507669831876608
p2198
aI0
aa(lp2199
V553513937246097408
p2200
aI0
aa(lp2201
V553506555250106368
p2202
aI0
aa(lp2203
V553516610275655680
p2204
aI0
aa(lp2205
V553689869810409473
p2206
aI0
aa(lp2207
V553509339701727233
p2208
aI0
aa(lp2209
V553508940634673152
p2210
aI0
aa(lp2211
V553505379079159808
p2212
aI0
aa(lp2213
V553506956686532608
p2214
aI0
aa(lp2215
V553620764516429825
p2216
aI0
aaa.