(lp0
(lp1
(lp2
V577258317942149120
p3
aS"Was Vladimir Putin netralized by an internal coup? Or maybe he's vacationing in Harper's closet:   LookingForNarnia"
p4
aI0
aa(lp5
V577260238316830721
p6
aS" I'm going with neutralized and their entire gov aQuake &amp; pissing selves w fear. Night of long knives gonna take months ;o)))"
p7
aI0
aa(lp8
V577283431089901568
p9
aS' It is disconcerting that the man with the codes to the worlds largest nuclear arsenal is missing. I suspect an unhappy oligarch.'
p10
aI0
aa(lp11
V577287160329465856
p12
aS' \nPutin has gone 1 better\nBehold the Russian secure office\nActor portrayed even\n'
p13
aI0
aa(lp14
V577282462788677634
p15
aS' or maybe he just needs a break from all the shit going on in this world.. I know I do!'
p16
aI0
aa(lp17
V577284294051123201
p18
aS" Maybe, just maybe he's huddling with best minds/top advisors about how to prevent USA UK NATO EU Canada threat of WWIII ?"
p19
aI0
aaa(lp20
(lp21
V576513463738109954
p22
aS'Putin reappears on TV amid claims he is unwell and under threat of coup  '
p23
aI0
aa(lp24
V576517854268403713
p25
aS' that looks like a double to me, dear.'
p26
aI0
aa(lp27
V576530311149932544
p28
aS' haha all he wanted was a week off! putindead'
p29
aI0
aa(lp30
V576513717212442625
p31
aS' never !!'
p32
aI0
aa(lp33
V576611747982897152
p34
aS" Lol coup? That's when you know you people are just making things up. westernfantasy"
p35
aI0
aa(lp36
V576516280431337472
p37
aS' selling inbetweeners 2 car for comic relief please rt!!  RND rednoseday'
p38
aI0
aa(lp39
V576526712940310528
p40
aS' whole lot of talk. He was probably on a hunting trip'
p41
aI0
aa(lp42
V576514586087714817
p43
aS' '
p44
aI0
aaa(lp45
(lp46
V576755174531862529
p47
aS'Coup? RT  Rumors all Russian military attaches at embassy in London have returned to Moscow: '
p48
aI0
aa(lp49
V576756801045139457
p50
aS' Russian Emb denies. RT   13 min\n This is not true.// I have more time for speculation'
p51
aI0
aa(lp52
V576758668026245120
p53
aS'  Or preparing to launch yet another war?'
p54
aI0
aa(lp55
V576755963597746176
p56
aS'  Reset.'
p57
aI0
aa(lp58
V576757065089159169
p59
aS' The meme makers are letting us down on this! We should see that red button ! //  '
p60
aI3
aa(lp61
V576756436321071104
p62
aS'   '
p63
aI3
aaa(lp64
(lp65
V576829262927413248
p66
aS'Very good on Putin coup by  Three Scenarios For A Succession In Russia  via  '
p67
aI0
aa(lp68
V576848493337296896
p69
aS"    Putin'll be made a tsar (and the newborn an heir). Back 2 serfdom as Zorkin suggested."
p70
aI0
aa(lp71
V576833135326961664
p72
aS'Three Scenarios For A Succession In Russia by   via   v  Putin'
p73
aI0
aa(lp74
V576846509632798720
p75
aS' What are your thoughts on WhereIsPutin?'
p76
aI0
aa(lp77
V576847084579618816
p78
aS' Either a simple flue, more serious illness or serious domestic political problems.'
p79
aI3
aa(lp80
V576893187962224640
p81
aS'  '
p82
aI4
aa(lp83
V576830316372996096
p84
aS'   uhmmm botox sesions far more likely anyway'
p85
aI0
aa(lp86
V576830686713217024
p87
aS'   And how Europe will behave in such a case?'
p88
aI0
aaa(lp89
(lp90
V576812998418939904
p91
aS"Putin reappears on television amid rumours his 'girlfriend' is about 2 give birth   "
p92
aI0
aa(lp93
V576813541736517634
p94
aS'  Mazaltov!  They could call the baby Ukrainia.'
p95
aI0
aa(lp96
V576813964375523328
p97
aS'  '
p98
aI1
aaa(lp99
(lp100
V576276947648405505
p101
aS'Coup in Russia? Good article by   RamzanKadyrov Putin putindead '
p102
aI0
aa(lp103
V576278902185705472
p104
aS'RamzanKadyrov- A Sunni Muslim Russian/Chechen Ultranationalist w/ ties to the "United Russia" party(Putinism) &amp; Russia\'s FSB(current KGB).'
p105
aI0
aa(lp106
V576279839205818368
p107
aS'US Embassy Moscow cables talk of an operation planned by "dissidents" in Russia to "overthrow Putin".  RussiaCoup'
p108
aI1
aa(lp109
V576281472778182656
p110
aS'So if RamzanKadyrov had BorisNemtsov assassinated was it at the direction of Putin or is/was Putin at the direction of FSB/Kadyrov? Hmm'
p111
aI2
aaa(lp112
(lp113
V576319832800555008
p114
aS'Hoppla!  Swiss Rumors: Putin absence due to girlfriend Alina giving birth in Ticino  '
p115
aI0
aa(lp116
V576321555384401920
p117
aS' Swiss Rumors:Putin absence due to girlfriendAlina giving birth   '
p118
aI0
aa(lp119
V576330432750440448
p120
aS'  At least its not Merkel so we would have a problem.'
p121
aI0
aa(lp122
V576321273594294272
p123
aS'  Mr Putin building the nation is great. Good country man and best president'
p124
aI0
aa(lp125
V576339955598942208
p126
aS'Both have proved their flexibility!   '
p127
aI0
aa(lp128
V576342675290497024
p129
aS'  Makes no sense though. Why go to Switzerland for that? Too much hassle.'
p130
aI0
aa(lp131
V576341114610929664
p132
aS'   My money still SecurityConcerns Nemstov could have shaken security DrEd'
p133
aI0
aa(lp134
V576324695420743680
p135
aS'  of course,keep dreaming'
p136
aI0
aa(lp137
V576336207203856385
p138
aS'  Given the state of Russian medical facilities, makes sense she would run to Switzerland. Not very patriotic, though.'
p139
aI0
aa(lp140
V576327925869506560
p141
aS' have you read this?  \nIs Andrei Illarionov a reliable source in your opinion?'
p142
aI0
aa(lp143
V576336711376056320
p144
aS'   Welcome Sir!'
p145
aI0
aaa(lp146
(lp147
V576796432730071040
p148
aS'Unformed Russian Embassy staff in London have left for Russia  Rumours Putin HAS DIED!  via  PutinDead?'
p149
aI0
aa(lp150
V576800982471962624
p151
aS"  Hopefully he got hold of some American CIA provocateurs and sabatoger's in Moscow red handed for killing Nemtsov."
p152
aI0
aa(lp153
V576801654118428672
p154
aS'  Military Coup to overthrow Putin my 1st thought buddy. Serious rumours Putin is Dead or Critical. Trying 2 source'
p155
aI1
aa(lp156
V576807061830287360
p157
aS' hey loved those cool utube vids you put together!'
p158
aI0
aa(lp159
V576809948425940992
p160
aS' Emm I never, I tagged the user. Not my video\'s Grace. I am "ShaunyNews" I share news. I am just sharing what I am being sent.'
p161
aI3
aa(lp162
V576797334530580480
p163
aS'  Did he die during Childbirth?'
p164
aI0
aa(lp165
V576798090155450368
p166
aS'  Yeah'
p167
aI5
aa(lp168
V576798270518894592
p169
aS'  Keep in mind "Unconfirmed" Rumours...I stated nothing. But I am on the edge of my seat awaiting a call'
p170
aI5
aa(lp171
V576801998739230720
p172
aS' where you getting the rumours from'
p173
aI0
aa(lp174
V576809682947448832
p175
aS' Many sources and you tube...  Where is Vladimir Putin? \n\n Latest one. All links are in both articles'
p176
aI8
aaa(lp177
(lp178
V576323086888361984
p179
aS'This appears to be the original source of the Putin/Kabayeva/Swiss clinic rumour '
p180
aI0
aa(lp181
V576323996028952576
p182
aS" plus direct info from the 'fields'!"
p183
aI0
aa(lp184
V576327374628917248
p185
aS"  Well, Blick is a tabloid, so I wouldn't necessarily believe everything they say :-)"
p186
aI0
aa(lp187
V576348301940932608
p188
aS' It is difficult not to think of "Rosemary\'s Baby" in this instance.'
p189
aI0
aa(lp190
V576435146632605696
p191
aS' \nWhat makes us think the baby story may be true? - The Kremlin denied it!\n\n  '
p192
aI0
aa(lp193
V576324320735178752
p194
aS' But why a Swiss clinic? Why not give birth in Russia? What am I missing here?'
p195
aI0
aaa.