(lp0
(lp1
(lp2
V580360165540642816
p3
aS' reporter James Andr at French Civil Aviation Authority HQ: "Germanwings plane did NOT report distress signal", no mayday.'
p4
aI0
aa(lp5
V580361957502517248
p6
aS' Safety record is not perfect.   '
p7
aI0
aa(lp8
V580361402663231488
p9
aS'.   Please take Hashtag 4U9525 for Germanwings Plane crash. Thank you'
p10
aI0
aaa(lp11
(lp12
V580321156508577792
p13
aS'Now hearing 148 passengers + crew on board the A320 that has crashed in southern French Alps. GermanWings flight. '
p14
aI0
aa(lp15
V580338933495570432
p16
aS'  we are just "crew" to you??? Four flight attendants &amp; two pilots all with families &amp; friends. WE COUNT, TOO!'
p17
aI0
aaa(lp18
(lp19
V580320684305416192
p20
aS'Accident aircraft looks to be Germanwings (Airline code 4U or GWI) flight 9525, Barcelona to Dusseldorf. 4U9525 '
p21
aI0
aa(lp22
V580329150180913152
p23
aS" the 1st and only tweet I've seen referencing the ICAO identifier "
p24
aI0
aa(lp25
V580321148728164353
p26
aS'RT  Accident aircraft looks to be Germanwings (Airline code 4U or GWI) flight 9525, Barcelona to Dusseldorf. 4U9525'
p27
aI0
aa(lp28
V580321651780399105
p29
aS' terrible news.'
p30
aI0
aaa(lp31
(lp32
V580326222107951104
p33
aS'Heart goes out to 148 passengers and crew of Germanwings Airbus A320 that has crashed in French Alps, Southern France '
p34
aI0
aa(lp35
V580327755121868800
p36
aS' Lets wait for NTSB to tell us why it happened. I hope its not terrorism.'
p37
aI0
aa(lp38
V580732521551396864
p39
aS' Hope we will not to hear this kind of news once again!'
p40
aI0
aa(lp41
V583361250639269888
p42
aS' A White European terrorist did a white wing suicide terrorist attack'
p43
aI0
aa(lp44
V580356158457774080
p45
aS' my support for families :-('
p46
aI0
aa(lp47
V581098345227227136
p48
aS' So sad to know that it was a deliberate suicide'
p49
aI0
aa(lp50
V580480344173993984
p51
aS' I recorded this today thinking about all those lost spirits May they Rest Easy - '
p52
aI0
aa(lp53
V580352961362202624
p54
aS' A tragedy for the families and friends of the plane travelers and workers! Despite news, may at least some of them could survive?'
p55
aI0
aa(lp56
V581283472549023744
p57
aS"  how many 'nazis' did leebowitz kill ?"
p58
aI0
aa(lp59
V580327842183032832
p60
aS' difficult times for the families involved what a loss'
p61
aI0
aa(lp62
V580501976305262592
p63
aS' :thank you for putting me on the TB list.'
p64
aI0
aaa(lp65
(lp66
V581386094337474560
p67
aS"RT  German media reporting AndreasLubitz had a 'serious depressive episode' six years ago  Germanwings"
p68
aI0
aa(lp69
V581573165492523008
p70
aS'  AndreasLubitz GermanWings A320 DrEd splitup with girlfriend one day before crash '
p71
aI0
aa(lp72
V581574401411457024
p73
aS'   all rumors.not confirmed at all'
p74
aI1
aa(lp75
V581575879928590336
p76
aS'   My 2nd source is confirm 4 me French media is reporting 2fer Unverified DrEd '
p77
aI2
aa(lp78
V581576082362478595
p79
aS'   F4Phantom crash 500mph hit ConcreteWall DrEd  From '
p80
aI2
aa(lp81
V581573267829342208
p82
aS'  \n A320 PilotsNoFlyNoseDoors  OffCourse Barcelona2Dusseldorf DrEd '
p83
aI0
aa(lp84
V581389448908300288
p85
aS' Col  military like you &amp; Gens J Keane have to say to Obama: "You have to bomb the Iran\'s nuclear facilities."'
p86
aI0
aa(lp87
V581501991005863936
p88
aS' best follow I ever did'
p89
aI0
aa(lp90
V582205500709867520
p91
aS'  Sure GermanWings CoPilot AndreasLubitz NewMotive DeadVisitorWalking DrEd '
p92
aI0
aa(lp93
V582048059606994944
p94
aS'  ers a link to prove  intentionally set out to kill '
p95
aI0
aa(lp96
V581389712063008768
p97
aS'  Him and millions of others no doubt but WHAT tipped him six years later to commit such an atrocious act??'
p98
aI0
aaa(lp99
(lp100
V580340476949086208
p101
aS'BREAKING: 148 feared dead in crashed Germanwings flight '
p102
aI0
aa(lp103
V580341529870348288
p104
aS' ok so.. There is no other news ? For an hour this is what we hear about ??'
p105
aI0
aa(lp106
V580370888303890432
p107
aS' funny watching Doocy struggle to pronounce "Digny les bains"'
p108
aI0
aa(lp109
V580377249905512450
p110
aS"  Douchey it's Douchey."
p111
aI2
aa(lp112
V580341360948948992
p113
aS' As long as plane stayed in air w/only one emergency call &amp; the wide spread debris no mention of possible terrorists on board?'
p114
aI0
aa(lp115
V580342470472400897
p116
aS" please don't spend all day on this!!! We all know who what when where ... Quit speculating on How or Why"
p117
aI0
aa(lp118
V580343913728352257
p119
aS' This is a tragedy but why does a foreign airline in a foreign country have to totally co-opt all news?'
p120
aI0
aa(lp121
V580348081272676352
p122
aS' another great tragedy'
p123
aI0
aa(lp124
V580674597298786304
p125
aS' children may not understand. Its the parents that are disrespectful. They should know better. Patriots'
p126
aI0
aa(lp127
V580342824236916737
p128
aS' 15:00 CET Germanwings Press Conference.'
p129
aI0
aa(lp130
V580343437536395264
p131
aS' 144 Passengers and 6 Crewmembers. Germanwings'
p132
aI0
aa(lp133
V580342548394352640
p134
aS'   Nothing New just rumors at this moment.'
p135
aI0
aa(lp136
V580352023033470976
p137
aS' rest in peace to families and friends .'
p138
aI0
aa(lp139
V580342091018084352
p140
aS' is there any other news in the world today. 2 hours of non stop plane crash. My condolences, but come on.'
p141
aI0
aa(lp142
V580675526307766272
p143
aS" this may be the plain in control. Are in this case out of control.  They fly themselves prayforfamily's"
p144
aI0
aa(lp145
V580344272576241664
p146
aS' Thats should be the extent of the coverage until further infor is obtained. The coverage is ridiculous and speculative enough'
p147
aI0
aa(lp148
V580360161211990016
p149
aS'    \nWhat was the mayday call, terror in the sky?'
p150
aI0
aa(lp151
V580345116658966528
p152
aS' BREAKING: 148 feared dead in crashed Germanwings flight  tragic!! Airbus320 GermanWingsCrash'
p153
aI0
aaa(lp154
(lp155
V580339547269144576
p156
aS'Latest on Germanwings crash: Pilots signaled 911 before dropping out of midair; airline CEO calls this a "dark day." '
p157
aI0
aa(lp158
V580340017886728192
p159
aS" Signalled 911? Called 'Mayday' would be more appropriate, factual reporting..."
p160
aI0
aa(lp161
V580342887910494208
p162
aS' Did you mean "mayday" here or "..for emergency"?'
p163
aI0
aa(lp164
V580351502671171584
p165
aS' on Germanwings crash:Pilots signalled 911 b4dropping out of midair;airlineCEO calls this a"dark day"'
p166
aI0
aa(lp167
V580342218373890048
p168
aS' yessss!!'
p169
aI0
aa(lp170
V580340033384775680
p171
aS' signaled 911?'
p172
aI0
aa(lp173
V580340609388417024
p174
aS'. What does that even mean? Why would European pilots say 911 - an American emergency phone number? Nothing in article about that.'
p175
aI0
aa(lp176
V580347953069592577
p177
aS' makes reference to 911 RE Germanwings NOTHING BUT LIES at the cost of LIVES, BOYCOT website'
p178
aI0
aa(lp179
V580340736815718400
p180
aS' you might want to change the use of 911 in this context.'
p181
aI0
aa(lp182
V580349082406895616
p183
aS' His Facebook,  Address coming shortly'
p184
aI0
aa(lp185
V580345218152734720
p186
aS' didn\'t find "911" in all stories and updates, international and local german. Please don\'t speculate and spread lies'
p187
aI0
aa(lp188
V580348622421811200
p189
aS'  the man behind the lies'
p190
aI0
aa(lp191
V580341230145572865
p192
aS' germanwings really? pilots signalled 911? So they got on a satellite phone and called a US emergency line?'
p193
aI0
aa(lp194
V580341019515883521
p195
aS' Latest on Germanwings crash: Pilots signaled 911 before dropping out of midair dropping out of...no...irresponsible reporting.'
p196
aI0
aaa(lp197
(lp198
V580319184652890113
p199
aS'BREAKING: 148 passengers were on board GermanWings Airbus A320 which has crashed in the southern French Alps '
p200
aI0
aa(lp201
V580321926515572737
p202
aS' 148 passengers were on board GermanWings Airbus A320 which has crashed in the southern French Alps '
p203
aI0
aa(lp204
V580319482687680512
p205
aS'BREAKING: 148 passengers were on board GermanWings Airbus A320 which has crashed in the southern French Alps - '
p206
aI0
aa(lp207
V580319759532724224
p208
aS' BREAKING: 148 passengers were on board GermanWings Airbus A320, crashed in the southern French Alps -  '
p209
aI2
aa(lp210
V580347685565280256
p211
aS'  150 souls on board they say now. RIP to all of them'
p212
aI2
aa(lp213
V580339156435345409
p214
aS'  No crew???? Those passengers were all on their own? Wtf!'
p215
aI2
aa(lp216
V580321806285975552
p217
aS'  Prayers going up. How sad.'
p218
aI2
aa(lp219
V580321411677454336
p220
aS'UPDATE: Plane crash in south of France had 142 passengers, 2 pilots and 4 crew.'
p221
aI2
aa(lp222
V580358131080925184
p223
aS'  what happened'
p224
aI7
aa(lp225
V580320265030123520
p226
aS' Terrible!'
p227
aI0
aaa(lp228
(lp229
V580332109782466561
p230
aS"4U9525 From FL380 to FL110 in 8 min? That's average rate of descent 3375 fpm! Than levelled off at FL068? What the hell was going on there?"
p231
aI0
aa(lp232
V580332339055726592
p233
aS' Only entered FL380 for a few mins prior too. So sad.'
p234
aI0
aa(lp235
V580339386262380544
p236
aS" my thoughts exactly. rate is not unusual but surely crew were aware of where they were &amp; terrain... this'll be interesting."
p237
aI0
aa(lp238
V580332419871539200
p239
aS' but at a controlled speed (unless readings were out), which makes it even more bizarre. I hope they find the real answers soon'
p240
aI0
aa(lp241
V580332626541694976
p242
aS' Im thinking structurql failure - qnd then depressure etc cockpit window etc ? Trqgique'
p243
aI0
aa(lp244
V580332487819165696
p245
aS' descent rate is not that unusual.'
p246
aI0
aa(lp247
V580335390197981184
p248
aS'  would point to a cabin depressurisation'
p249
aI0
aa(lp250
V580357944815972353
p251
aS' EMERG DESC, set FL68, started descent and lost consciousness before able to set higher ALT? Seems likely...'
p252
aI0
aa(lp253
V580333762677997569
p254
aS' pilots may have been suffering a Hypoxie'
p255
aI0
aa(lp256
V580332678274240512
p257
aS' And apperently no turn to avoid terrain. Straight ahead into the mountains.'
p258
aI0
aaa(lp259
(lp260
V580348081100734464
p261
aS'Germanwings "sorry to confirm" 144 passengers &amp; 6 crew on board flight 4U9525 when it crashed in French Alps '
p262
aI0
aa(lp263
V580348238705741824
p264
aS" May they RIP.. So many planes crashing! What's going on??"
p265
aI0
aa(lp266
V580348826835394560
p267
aS'Sad news " Germanwings "sorry to confirm" 144 passengers &amp; 6 crew on board 4U9525 when it crashed '
p268
aI0
aa(lp269
V580360979998900224
p270
aS' '
p271
aI0
aa(lp272
V580419652792279040
p273
aS'  All I can say is that we MUST support Israel &amp; the Jews.'
p274
aI3
aa(lp275
V580349775280738304
p276
aS'Have mercy My heart breaks RT  Germanwings confirm 144 ppl &amp; 6 crew on FLT 4U9525 crash in French Alps \n'
p277
aI0
aa(lp278
V580349875851784192
p279
aS'Victims of Germanwings crash were most likely from Spain, Germany &amp; Turkey, says French President Hollande '
p280
aI0
aa(lp281
V580350976026112000
p282
aS'King Felipe VI of Spain cancels state visit to France after Germanwings crash  '
p283
aI6
aa(lp284
V580421457974566912
p285
aS"  What Does He Know That We Don't? "
p286
aI7
aa(lp287
V580422091155095552
p288
aS'   OF COURSE OBAMA LUCKS OUT AGAIN. PLANE CRASH TAKES FOCUS OFF IRAN DEADLINE TODAY.'
p289
aI8
aa(lp290
V580422272575533056
p291
aS'  assholes'
p292
aI8
aa(lp293
V580354381578522625
p294
aS'King Felipe VI of Spain cancels state visit to France after Germanwings crash   | '
p295
aI7
aa(lp296
V580351508971200512
p297
aS" It's been a rotten year for France so far..."
p298
aI7
aa(lp299
V580358103255879680
p300
aS'  In this case for Germany and Spain as well...:-('
p301
aI12
aa(lp302
V580358531850866688
p303
aS" I know I know.. :'( I had added 'and Europe', but then deleted it. Didn't want to sound too doomed....."
p304
aI13
aa(lp305
V580418932152102912
p306
aS"  This is sadly true...Support Israel, the apple of God's eye. PJNET CCOT wakeupnow WORLD! WakeUpAmerica John 3:16-17"
p307
aI12
aa(lp308
V580353327470247936
p309
aS"  What he couldn't be driven?"
p310
aI7
aa(lp311
V580355004294250496
p312
aS' King Felipe VI of Spain cancels state visit to France after Germanwings crash  '
p313
aI7
aa(lp314
V580351698545319937
p315
aS' victims from Catalonia, Spain and Germany please correct your information.'
p316
aI6
aa(lp317
V580350715408859136
p318
aS'RT  Victims of Germanwings crash were most likely from Spain, Germany &amp; Turkey, says President Hollande '
p319
aI6
aa(lp320
V580364951367200770
p321
aS'MT  Germanwings: 144 passengers &amp; 6 crew on board flight 4U9525 when it crashed in French Alps '
p322
aI0
aa(lp323
V580419288441491457
p324
aS' Pray for the grieving families. '
p325
aI0
aaa(lp326
(lp327
V581473088249958400
p328
aS'GERMAN NEWS REPORT: Co-Pilot of Germanwings Airbus Was MUSLIM CONVERT Hero of Islamic State?  via '
p329
aI0
aa(lp330
V581506195304775681
p331
aS'  MSM refuses to say muslim. Just a mental case. As are all muslim/jihads.'
p332
aI0
aa(lp333
V581473546200707073
p334
aS'  i knew that scarf he was wearing in that photo meant trouble!'
p335
aI0
aa(lp336
V581473799398359040
p337
aS'  I knew it! Those crazy bastards are the only ones evil enough to do shit like that!'
p338
aI0
aa(lp339
V581474582302949376
p340
aS"  Hmmm.Doesn't pundit mean joke? I haven't seen this on news."
p341
aI0
aa(lp342
V581478014531203072
p343
aS"  Isn't Islam a wonderfully peaceful religion? I wonder how Iran will do with all of the peaceful centrifuges O gave?"
p344
aI0
aa(lp345
V581482916645076993
p346
aS'   this is not a surprise.'
p347
aI0
aaa(lp348
(lp349
V580319078155468800
p350
aS'Germanwings Airbus A320 crashes in French Alps near Digne '
p351
aI0
aa(lp352
V580320203474542592
p353
aS'RT  Germanwings Airbus A320 crashes in French Alps near Digne \njwave radiko'
p354
aI0
aa(lp355
V580321760735711232
p356
aS'Yikes :( RT  Germanwings Airbus A320 crashes in French Alps near Digne '
p357
aI0
aa(lp358
V580321698450399232
p359
aS'RT  Germanwings Airbus A320 crashes in French Alps near Digne '
p360
aI0
aa(lp361
V580320057017896961
p362
aS'RT  Germanwings Airbus A320 crashes in French Alps near Digne '
p363
aI0
aa(lp364
V580321716838100992
p365
aS'BreakingNews  Germanwings Airbus A320 crashes in French Alps near Digne  BREAKING planecrash'
p366
aI0
aa(lp367
V580320982260387840
p368
aS'RT:  Germanwings Airbus A320 crashes in French Alps near Digne '
p369
aI0
aa(lp370
V580320510833086465
p371
aS' Germanwings Airbus A320 crashes in French Alps near Digne  '
p372
aI0
aa(lp373
V580320979995508737
p374
aS' Germanwings Airbus A320 crashes in French Alps near Digne \n\nOh Jeez, no!!!'
p375
aI0
aa(lp376
V580333382934089728
p377
aS'  Horrible news.'
p378
aI8
aa(lp379
V580333804457496576
p380
aS' The worst :('
p381
aI9
aa(lp382
V580337415241383938
p383
aS"   that's terrible"
p384
aI10
aa(lp385
V580337664471265280
p386
aS'.   Just heard: No survivors '
p387
aI11
aa(lp388
V580337829638598656
p389
aS'  my heart is with the loved ones '
p390
aI12
aa(lp391
V580338252361629697
p392
aS'  Yes, it is.  Sounds like there are no survivors.'
p393
aI11
aa(lp394
V580319546592112640
p395
aS'   '
p396
aI0
aa(lp397
V580322377927692288
p398
aS'BBC says 142 passengers &amp; 6 crew  RT  Germanwings Airbus A320 crashes in French Alps near Digne '
p399
aI0
aa(lp400
V580320961439887360
p401
aS'RT  Germanwings Airbus A320 crashes in French Alps near Digne '
p402
aI0
aa(lp403
V580320708376461312
p404
aS' Germanwings Airbus A320 crashes in French Alps near Digne   '
p405
aI0
aa(lp406
V580319878328020992
p407
aS'RT  Germanwings Airbus A320 crashes in French Alps near Digne '
p408
aI0
aa(lp409
V580319644013170688
p410
aS' Germanwings Airbus A320 crashes in French Alps near Digne '
p411
aI0
aa(lp412
V580319622521442304
p413
aS' Germanwings Airbus A320 crashes in French Alps near Digne  another plane crash.. Oh God.'
p414
aI0
aa(lp415
V580320511315587073
p416
aS' awful news  :-('
p417
aI0
aa(lp418
V580321858014298112
p419
aS' omg'
p420
aI0
aa(lp421
V580320280607920128
p422
aS'Im getting more skeptical of flying. RT  Germanwings Airbus A320 crashes in French Alps near Digne '
p423
aI0
aa(lp424
V580319644218687488
p425
aS' Germanwings Airbus A320 crashes in French Alps near Digne  flying today and THIS is not what I see :/'
p426
aI0
aa(lp427
V580325778207932416
p428
aS'  millions of flights happen everyday. This is only one.'
p429
aI25
aa(lp430
V580409410884894720
p431
aS'--thousands, not millions, of planes daily/globally; -- millions of daily flyers/passengers, yes). '
p432
aI26
aa(lp433
V580409595472060416
p434
aS"   I didn't mean millions literally ;) figure of speech"
p435
aI27
aa(lp436
V580410281018413056
p437
aS'ok,Good.:);)'
p438
aI28
aa(lp439
V580325939273424896
p440
aS' I do know that!'
p441
aI26
aa(lp442
V580326288885420032
p443
aS" then don't panic. You can always sail if you like ;)"
p444
aI30
aa(lp445
V580326388110114816
p446
aS' Not to Amsterdam! Itl take too long.'
p447
aI31
aaa(lp448
(lp449
V580333909008871424
p450
aS'French junior minister for Transport Alain Vidalies confirms they are no survivors in the Germanwings A320 crash. '
p451
aI0
aa(lp452
V580486138378452992
p453
aS'  condolences to the families! My prayers are with them!'
p454
aI0
aa(lp455
V580337316687794176
p456
aS' BREAKING - Germanwings plane crashes in France, up to 150 believed dead\n'
p457
aI0
aa(lp458
V580340509664739328
p459
aS'I am flying with  in 2 weeks!!! SO FUCKING SCARED survivors in the Germanwings A320 crash. '
p460
aI0
aaa(lp461
(lp462
V580882341880446977
p463
aS'Report: Co-Pilot Locked Out Of Cockpit Before Fatal Plane Crash  Germanwings '
p464
aI0
aa(lp465
V580883004945395712
p466
aS" Suicide mission?  That's crazy stuff."
p467
aI0
aa(lp468
V580884146962046977
p469
aS" that's suspicious!"
p470
aI0
aa(lp471
V580883298316062720
p472
aS" doesn't mention if it's the co-pilot in the report."
p473
aI0
aa(lp474
V580954155092549632
p475
aS' This sounds like pilot suicide.'
p476
aI0
aa(lp477
V580954643028697088
p478
aS'  My thought too! Question is then if his motives where his own or something else?'
p479
aI4
aaa(lp480
(lp481
V581063377226637312
p482
aS'4U9525: Robin names Andreas Lubitz as the copilot in the flight deck who crashed the aircraft.'
p483
aI0
aa(lp484
V581063835194392576
p485
aS' '
p486
aI0
aa(lp487
V581070383023030272
p488
aS' Have they named the pilot?'
p489
aI0
aaa(lp490
(lp491
V580339825649291264
p492
aS'Germanwings passenger plane crashes in French Alps with 148 onboard  '
p493
aI0
aa(lp494
V580343629593620480
p495
aS' Germanwings passenger plane crashes in French Alps with 148 onboard   '
p496
aI0
aa(lp497
V580341810729369600
p498
aS'Breaking RT  Germanwings passenger plane crashes in French Alps with 148 onboard  '
p499
aI0
aa(lp500
V580340609958858753
p501
aS" Praying for the families and friends of those involved in crash. I'm so sorry for your loss."
p502
aI0
aa(lp503
V580346192367878144
p504
aS'RT  Germanwings passenger plane crashes in French Alps with 148 onboard  '
p505
aI0
aa(lp506
V580341606827474946
p507
aS" terrible situation...Let's pray to God to take control!"
p508
aI0
aa(lp509
V580417959929212928
p510
aS'Tragedy strikes again RT  Germanwings passenger plane crashes in French Alps with 148 onboard '
p511
aI0
aa(lp512
V580340111981867010
p513
aS'  damn, thats the airlines i normally use when going Germany bro.'
p514
aI0
aa(lp515
V580340526236483584
p516
aS"  Ohhh man, terrible news for all the victims' families!"
p517
aI7
aa(lp518
V580376517492023296
p519
aS' Germanwings passenger plane crashes in French Alps with 148 onboard   sad sad day'
p520
aI0
aaa(lp521
(lp522
V580325090367315968
p523
aS'Flight 4U9525 initially climbed to 38,000 feet before before it started to descend and lost signal at 6,800 feet. '
p524
aI0
aa(lp525
V580325976975896577
p526
aS' Any ATC available? Strange.....'
p527
aI0
aa(lp528
V580325493603471361
p529
aS'RT  A320 4U9525 initially climbed to 38k ft before starting to descend and lost signal at 6.8k ft '
p530
aI0
aa(lp531
V580325295841943553
p532
aS' But no emergency call made? Or emergency squawk? '
p533
aI0
aa(lp534
V580326527495237632
p535
aS'   Sent Mayday through radio. I suppose he had other things to do than adjust the Squawk'
p536
aI3
aa(lp537
V580476624069619712
p538
aS"   It turns out there was no distress call made. I'm almost certain this was a hi-jacking now."
p539
aI4
aa(lp540
V580476902344941569
p541
aS'   Unless they became rapidly unconcious'
p542
aI5
aa(lp543
V580477320735133696
p544
aS'   It looks like someone was flying it manually, all the way into the ground.'
p545
aI6
aa(lp546
V580477720389398528
p547
aS'   For sure not, it was following exactly the same flight path as day before '
p548
aI7
aa(lp549
V580565085090889728
p550
aS"   What I'm saying is, I believe it was deliberately crashed. Being controlled all the way into the ground"
p551
aI8
aa(lp552
V580505722531778562
p553
aS"    Yep, it's follow exactly the route going down, that seems to suggest unconscious pilots."
p554
aI8
aa(lp555
V580477832826130432
p556
aS'   No, somebody had just initiated the descent, and might have been unconcious or dead just after that.'
p557
aI7
aa(lp558
V581023104970829824
p559
aS"   They're saying what I said, the crash was a deliberate act. Controlled flight all the way down."
p560
aI11
aa(lp561
V581034287522164736
p562
aS'   Or autopilot. But sure deliberately set.'
p563
aI12
aa(lp564
V581034556964245504
p565
aS"   I don't think the autopilot was engaged."
p566
aI13
aa(lp567
V581062346321190914
p568
aS"   They're now saying the co-pilot deliberately crashed the plane."
p569
aI13
aa(lp570
V581063618730553344
p571
aS"   That's what they say."
p572
aI15
aa(lp573
V581063788150980608
p574
aS'   The data from the transponder made it obvious.'
p575
aI16
aa(lp576
V581064636373590016
p577
aS'   The transponder did not say anything. No sqwak 7700.'
p578
aI17
aa(lp579
V581065340110655488
p580
aS'   crash it deliberately, the whole industry needs a shake-up.'
p581
aI18
aa(lp582
V581065199672655873
p583
aS"   distress call. I thought it was hi-jacked and being flown by then. If it's true that the co-pilot did"
p584
aI18
aa(lp585
V581065934598582272
p586
aS"   It only takes a moment to enter 7700 into the transponder. I've worked on these systems before."
p587
aI18
aa(lp588
V581075660690575360
p589
aS'   Autopilot was manually changed from 38,000 to 100 ft at 09:30:55 (Flightradar24 says)'
p590
aI21
aa(lp591
V581194101032255488
p592
aS' Have you operated a flight mqnagement computer before? I used to test them. What FlightRadar24 is ahowing is changes made'
p593
aI22
aa(lp594
V581174677554380800
p595
aS" The autopilot wasn't set to 100 feet. It was flown manually. FlightRadar24 has made that up."
p596
aI22
aa(lp597
V581194453471260672
p598
aS" the flight profile. That doesn't indicate that the autopilot was set to 100 feet. I've worked on these systems, tested them"
p599
aI22
aa(lp600
V581194671902195712
p601
aS"   and have operated them in sumulators. Also on actual flights when I've been in the flight deck."
p602
aI22
aa(lp603
V581197425366401024
p604
aS'   Look at the time on each line. The altitudes are requested not achieved.'
p605
aI26
aa(lp606
V581198171176480768
p607
aS" But that's the FMC, doesn't mean autopilot was engaged."
p608
aI27
aa(lp609
V581198557966897153
p610
aS" what's the use of changing FMC if autopilot not engaged?"
p611
aI28
aa(lp612
V581199670430449664
p613
aS' It changes the flight profile and cuts out the warnings and some of the protection.'
p614
aI29
aa(lp615
V581064927101628416
p616
aS'   It was obvious it was being manually controlled by the changes in descent rate. Also no'
p617
aI18
aa(lp618
V581064371289239552
p619
aS'   Would be good to get the data from the Flight Data Recorder though.'
p620
aI16
aa(lp621
V580478159126175745
p622
aS'   If someone set the autopilot to fly it into the ground, the descent rate would have been constant.'
p623
aI11
aa(lp624
V580478459413209088
p625
aS'   which seems to be the case.Constant descent, wind variations set aside..'
p626
aI33
aa(lp627
V580477423487180800
p628
aS'   Anyway. Have to wait and see now.'
p629
aI6
aa(lp630
V580327254468603904
p631
aS'   Only takes a second to set the squawk code,'
p632
aI4
aa(lp633
V580327990845927425
p634
aS'    yes but every second not spent trying to save everyone.....'
p635
aI36
aa(lp636
V580327559193346048
p637
aS"   What's the use when you're crashing?"
p638
aI36
aa(lp639
V580326199324463104
p640
aS' isnt 38,000ft unusually high?'
p641
aI0
aa(lp642
V580326880169082881
p643
aS'  yes and no depends on other traffic, turbulence... they were 25 mins late so going higher = going quicker'
p644
aI39
aa(lp645
V580325250996518913
p646
aS" any idea why it'd flight so high?  It's a short flight, usually planes go at ~ 33,000 feet"
p647
aI0
aa(lp648
V580325766946230272
p649
aS' Sounds like a decent of 2900fpm'
p650
aI0
aaa(lp651
(lp652
V580333763512705025
p653
aS'Germanwings latest: \n- Airbus A320 crashes in French Alps\n- Barcelona-to-Dusseldorf flight\n- 142 passengers &amp; 6 crew'
p654
aI0
aa(lp655
V580335777923510272
p656
aS' very socked news for passengers &amp; crew members family.'
p657
aI0
aa(lp658
V580335772596858880
p659
aS' \nso sad, what made it.'
p660
aI0
aa(lp661
V580336383480446976
p662
aS' Germanwings Airbus I wish we hear the best from this sad incidence. Are prayers are with the victims their families.'
p663
aI0
aa(lp664
V580334382180929536
p665
aS' Germanwings: \n- Airbus A320 crashes in French Alps\n- Barcelona-to-Dusseldorf flight\n- 142 passengers &amp; 6 crew heartbreak'
p666
aI0
aa(lp667
V580336622811500545
p668
aS' RIP'
p669
aI0
aa(lp670
V580334573264842752
p671
aS''
p672
aI0
aa(lp673
V580337014328942592
p674
aS'  oh god '
p675
aI0
aa(lp676
V580336417391439872
p677
aS"Debris from Germanwings crash located in Barcelonette area of the Alps, France's Interior Ministry says "
p678
aI0
aa(lp679
V580397833548861442
p680
aS' our hearts in nigeria goes to the victims families, the LORD shall console them..'
p681
aI8
aa(lp682
V580336658073141249
p683
aS' heavy'
p684
aI8
aa(lp685
V580337070595403777
p686
aS'Debris from Germanwings crash located in Barcelonette area of the Alps | \n\n'
p687
aI8
aa(lp688
V580337921598816256
p689
aS' so called experts say no time for distress call but flight radar shows gradual descent over 10 minutes plane crash'
p690
aI8
aa(lp691
V580805320068325377
p692
aS' How ironic that it originated in Barcelona and crashed in Barcelonette'
p693
aI8
aa(lp694
V580336915880116224
p695
aS' Heart'
p696
aI8
aa(lp697
V580337657777156097
p698
aS' On a positive note there is a runway in Barcelonette.'
p699
aI8
aa(lp700
V580353553383968769
p701
aS'   My prayers to the families '
p702
aI8
aa(lp703
V580361704065859584
p704
aS'  told u '
p705
aI8
aa(lp706
V580337060864638976
p707
aS' Airtravel no more safe! Repetitive incidents.'
p708
aI0
aa(lp709
V580336127162392576
p710
aS' '
p711
aI0
aa(lp712
V580334624657768448
p713
aS' terrifying news .pray for their relatives'
p714
aI0
aa(lp715
V580335177785696256
p716
ag672
aI0
aa(lp717
V580335134806790144
p718
aS" Tragic Not sure how  can be so sure no survivor's though germanwings Lufthansa"
p719
aI0
aa(lp720
V580335643424743424
p721
aS"   smh some people just don't think before they speak"
p722
aI22
aa(lp723
V580333870626766848
p724
aS' '
p725
aI0
aaa(lp726
(lp727
V581047170637381632
p728
aS'Names of pilots rumored to be Patrick Sonderheimer with co-pilot Andreas Lubitz - No formal confirmation yet. germanwings'
p729
aI0
aa(lp730
V581050539003277312
p731
aS' Source of info?'
p732
aI0
aa(lp733
V581054221086285824
p734
aS' where did you hear that?'
p735
aI0
aa(lp736
V581049811757076480
p737
aS' Andreas Lubitz FB profile removed'
p738
aI0
aaa(lp739
(lp740
V580322453928431617
p741
aS'German Wings airline tweeting now about reports of plane crashing in French Alps with 148 on board:  '
p742
aI0
aa(lp743
V580390811197665280
p744
aS'  yes indeed :-(.'
p745
aI0
aa(lp746
V581219554912800768
p747
aS'  was the co-pilot Christian - since no ones calling this a terrorist act!'
p748
aI0
aaa(lp749
(lp750
V580331561398108160
p751
aS'1047 call: DGAC source says pilots called urgence, urgence (emergency, emergency), as opposed to a mayday call or 7700 squawk. 4U9525'
p752
aI0
aa(lp753
V580333696596738050
p754
aS'  mayday is French!'
p755
aI0
aa(lp756
V580332179072393217
p757
aS' what are the implications of this? '
p758
aI0
aa(lp759
V580332722306084864
p760
aS"  Mayday is a call for urgent assistance. (M'aidez). Not a lot of help for a plane hurtling towards the floor."
p761
aI0
aa(lp762
V580345889744654337
p763
aS"  Is that roughly equivalent to our 'Pan Pan' call it priority I assume?"
p764
aI0
aa(lp765
V580346271547920384
p766
aS"  No 'Pan Pan' call is universal"
p767
aI4
aa(lp768
V580348442318381056
p769
aS'  Ahh.. I was always taught it was a UK only thing; and having done only limited flying abroad never tested that!'
p770
aI5
aa(lp771
V580332597919776768
p772
aS'  They made that call in French?'
p773
aI0
aa(lp774
V580334044774326272
p775
aS'   Lots of radio protocol is French... Mayday is M\'aidez. Urgence, pan-pan, "see-lonce" etc.'
p776
aI7
aa(lp777
V580338850951639044
p778
aS"   Roger. Just seems odd given most comms are in English. Doesn't make it wrong, of course."
p779
aI8
aa(lp780
V580339782213083137
p781
aS'   Just historic. Also hard to confuse with other words, so clear for the listener.'
p782
aI9
aa(lp783
V580333630913933312
p784
aS'  why would they say urgence in lieu of mayday which is standard ?'
p785
aI0
aa(lp786
V580338878915190784
p787
aS' is that unusual?'
p788
aI0
aaa(lp789
(lp790
V581293286268129280
p791
aS'GERMAN NEWS: Co-Pilot of Germanwings Airbus Was MUSLIM CONVERT. Can any muslim be trusted near an airplane now?'
p792
aI0
aa(lp793
V581314247738687488
p794
aS' "recent Muslim convert". Like ComDem "true believer". Headshake. God Help US all my friend.'
p795
aI0
aa(lp796
V581438559401410560
p797
aS'.  Maybe it will be referred to as "workplace violence" since he was at work when he did it.'
p798
aI0
aa(lp799
V581440515834413056
p800
aS'  It took long enough to admit this. Who was holding it back?'
p801
aI0
aa(lp802
V581313996940296192
p803
aS' GERMAN NEWS: Co-Pilot of Germanwings Airbus Was MUSLIM CONVERT Hero of Islamic State? '
p804
aI0
aa(lp805
V581295555281747968
p806
aS'  NOOOO'
p807
aI0
aa(lp808
V581295807346900992
p809
aS'  If TRUE, then we are late in taking conscience of the magnitude of evil brooding upon the civilised world.'
p810
aI0
aa(lp811
V581298086246395904
p812
aS"  Yup. I'm not trying tobe Islamophobic, but would anyone put their kid on a plane with a muslim pilot?"
p813
aI6
aa(lp814
V581299394340880384
p815
aS'   no, nor a two men one.'
p816
aI7
aa(lp817
V581307953950527488
p818
aS' The question should be," Should any country other than muslim countries hire muslim pilots?"    '
p819
aI7
aa(lp820
V581300449237667840
p821
aS'   a muslim convert? You start these lies.I hope he rots in his hell and you in a prison one if lying'
p822
aI7
aa(lp823
V581420137724530688
p824
aS'    that pilot attended mosques in Germany - religion of peace strikes again'
p825
aI10
aa(lp826
V581454776740773888
p827
aS'    how do you know?'
p828
aI11
aa(lp829
V581333436473868288
p830
aS'    \nHow would you know the pilot was Muslim?'
p831
aI7
aa(lp832
V581299530517192705
p833
aS"   I wouldn't put anyone on a bus with a muslim driver much less a plane."
p834
aI7
aa(lp835
V581338469496041472
p836
aS' Dont u have anything better to do? What a laughing stock'
p837
aI0
aa(lp838
V581294486472421376
p839
aS' Can any Muslim be trusted.  The Obama administration is full of them.'
p840
aI0
aaa(lp841
(lp842
V580371845997682688
p843
aS'4U9525 took eight minutes to descend from 38,000 feet to impact, says Germanwings CEO Winkelmann.'
p844
aI0
aa(lp845
V580375094784106496
p846
aS'  Just over 4500 fpm average rate of descent...completely normal and would seem controlled...'
p847
aI0
aa(lp848
V580372594186170368
p849
aS'  at what point during those 8 min did distress call go out?'
p850
aI0
aaa(lp851
(lp852
V580324027715063808
p853
aS'JUST IN: Germanwings plane crashes in southern France, up to 150 feared dead '
p854
aI0
aa(lp855
V580344945610870785
p856
aS' JUST IN: Germanwings plane crashes in southern France, up to 150 feared dead  '
p857
aI0
aa(lp858
V580327894674579456
p859
aS' JUST IN: Germanwings plane crashes in southern France, up to 150 feared dead  sigh airbus.'
p860
aI0
aa(lp861
V580333435287265280
p862
aS'  JUST IN: Germanwings plane crashes in southern France, up to 150 feared dead '
p863
aI0
aaa.