(lp0
(lp1
(lp2
V552978184413921281
p3
aS"Banksy's take on CharlieHebdo. JeSuisCharlie NousSommesCharlie "
p4
aI0
aa(lp5
V552979530923925504
p6
aS"Banksy gets it right.  Banksy's take on CharlieHebdo. JeSuisCharlie NousSommesCharlie "
p7
aI0
aa(lp8
V552979232515948546
p9
aS' '
p10
aI0
aaa(lp11
(lp12
V552802654641225728
p13
aS'Charlie Hebdo shooting latest: 12 dead and gunmen still at large  '
p14
aI0
aa(lp15
V552846396106502144
p16
aS'Horrible!  Charlie Hebdo shooting latest: 12 dead and gunmen still at large  '
p17
aI0
aa(lp18
V552804023389392896
p19
aS'  these fuckers thinking its a GTA heist mission'
p20
aI0
aa(lp21
V552803445711708160
p22
aS'Dua belas.\n\nRT  Charlie Hebdo shooting latest: 12 dead and gunmen still at large  '
p23
aI0
aa(lp24
V552804602702475265
p25
aS'  good'
p26
aI0
aa(lp27
V552806033585090560
p28
aS'  your readers love Muslim multiculturalism so they can look forward to this in the UK soon.'
p29
aI0
aa(lp30
V552808630022840320
p31
aS"   don't."
p32
aI5
aa(lp33
V552804298870910977
p34
aS'paris terrorist attack  Charlie Hebdo shooting latest:12 dead&amp;gunmen still at large  '
p35
aI0
aaa(lp36
(lp37
V553590835850514433
p38
aS'Hostage-taker in supermarket siege killed, reports say. ParisAttacks  '
p39
aI0
aa(lp40
V553594057034051584
p41
aS' '
p42
aI0
aa(lp43
V553593201756762113
p44
aS'ParisAttacks - " Hostage-taker in supermarket siege killed, reports say.  '
p45
aI0
aa(lp46
V553591307206422528
p47
aS' looks like 6 civilians in the latest photo'
p48
aI0
aa(lp49
V553603571200311296
p50
aS'Yes!!  RT  Hostage-taker in supermarket siege killed, reports say. ParisAttacks  '
p51
aI0
aa(lp52
V553592233354870785
p53
aS' I thought there was two hostage takers?'
p54
aI0
aa(lp55
V553591557325336576
p56
aS' '
p57
aI0
aa(lp58
V553590931866521602
p59
aS' Hostage-taker in supermarket siege killed, reports say. ParisAttacks  '
p60
aI0
aa(lp61
V553590917773656065
p62
aS' Good'
p63
aI0
aa(lp64
V553596117909512192
p65
aS' Hostage-taker in supermarket siege killed, reports say. ParisAttacks   JeSuisJuif'
p66
aI0
aa(lp67
V553615178492043264
p68
aS' '
p69
aI0
aa(lp70
V553615282435289088
p71
aS'  cheers, mental just mental'
p72
aI10
aa(lp73
V553615451549605888
p74
aS"  yeah it's terrible. Sounds like 4 hostages died in the supermarket."
p75
aI11
aa(lp76
V553615536354246656
p77
aS"  fucking hell, that's awful"
p78
aI12
aa(lp79
V553615750175686656
p80
aS'  All in the name of religion again. So fucking pointless.'
p81
aI13
aa(lp82
V553591583623245824
p83
aS'Wake up world to who terrorists are  Hostage-taker in supermarket siege killed,  '
p84
aI0
aa(lp85
V553591259009658881
p86
aS' hope he died in agony ....'
p87
aI0
aa(lp88
V553591850532347906
p89
aS' What about his girlfriend wanted by police ?'
p90
aI0
aa(lp91
V553591266316152832
p92
aS' Hostage-taker in supermarket siege killed, reports say. ParisAttacks  \nBluehand'
p93
aI0
aa(lp94
V553591230006067200
p95
aS' '
p96
aI0
aa(lp97
V553591773537513473
p98
aS' good work '
p99
aI0
aaa(lp100
(lp101
V553212962044149761
p102
aS'Paris says highest alert level extended north to region where attack suspects spotted -   '
p103
aI0
aa(lp104
V553214220364685313
p105
aS'   prayx not  2 happen again'
p106
aI0
aa(lp107
V553214228488667136
p108
aS'  kill those mother fuckers!'
p109
aI0
aa(lp110
V553213579672178689
p111
aS'   How stupid '
p112
aI0
aa(lp113
V553213078889062401
p114
aS'   hope they get caught'
p115
aI0
aa(lp116
V553214496567590914
p117
aS'   THE TERRORIST MOST LIKELY FLED TO THE MUSLIM ZONE WHERE COPS ARE NOT ALLOWED, COULD HAPPEN IN AMERICA'
p118
aI0
aa(lp119
V553232132269953024
p120
aS'       It is a matter of when it will happen.'
p121
aI5
aa(lp122
V553217937117831168
p123
aS'     In America, head for the WH. Be warmly greeted.'
p124
aI5
aaa(lp125
(lp126
V553518472798683136
p127
aS'MORE: Official: French terror suspects want to be martyrs; are holed up with hostage north of Paris: '
p128
aI0
aa(lp129
V553519787943690242
p130
aS'RT  French terror suspects want to be martyrs; are holed up with hostage north of Paris: '
p131
aI0
aa(lp132
V553518923409547264
p133
aS" that's an easy request to grant"
p134
aI0
aa(lp135
V553521356378476544
p136
aS' capture them, shave them, and march them through the streets of Paris like WWII collaborators. JeSuisCharlie Cowards'
p137
aI0
aa(lp138
V553520622920536064
p139
aS' MORE: Official: French terror suspects want to be martyrs; are holed up with hostage north of Paris: '
p140
aI0
aa(lp141
V553521113733824513
p142
aS' Come to the window and we will grant you your wish!!'
p143
aI0
aa(lp144
V553522878902468608
p145
aS' everyone in France will be celebrating, but many of them will undoubtedly be celebrating and acknowledging their martyr status'
p146
aI0
aa(lp147
V553520342111494145
p148
aS' MORE: Official: French terror suspects want to be martyrs; are holed up with hostage north of Paris: '
p149
aI0
aa(lp150
V553521154921881600
p151
aS" let's not forget the Clinton(s) frequenting the Royal pedophile palace."
p152
aI0
aa(lp153
V553518879222161408
p154
aS'RT  MORE: Official: French terror suspects want to be martyrs; are holed up with hostage north of Paris: '
p155
aI0
aa(lp156
V553521787225796608
p157
aS' Not sure how taking a hostage says "Martyr".  Release the hostage, the french will then martyr you.'
p158
aI0
aa(lp159
V553524538903109632
p160
aS'  what? will they? though I do think many in France will treat them as martyrs when they do eventually die!'
p161
aI10
aa(lp162
V553521412934475777
p163
aS'Capturing them alive wd ruin their plan  French terror suspects want to be martyrs; are holed up north of Paris: '
p164
aI0
aa(lp165
V553518706681053184
p166
aS' easy. Wish granted. Just step outside!!'
p167
aI0
aa(lp168
V553521233162031104
p169
aS'  \nFuck! If you do, that rat hole becomes a mosque! Fuck this 7th c barbarism!'
p170
aI0
aa(lp171
V553519647400554497
p172
aS' '
p173
aI0
aa(lp174
V553520926906941440
p175
aS"  would like me to say we love you &amp; all know ddrs caused this f'd up situation. Please be like Joan of Arc &amp; listen to Him."
p176
aI0
aa(lp177
V553520097395245056
p178
aS' give the fuckers there wish'
p179
aI0
aa(lp180
V553519009149100032
p181
aS' Let them due as martyrs then.'
p182
aI0
aa(lp183
V553521650831196160
p184
aS'The 144 virgins to line up MORE: Official: French terror suspects want to be martyrs;'
p185
aI0
aa(lp186
V553519836249071617
p187
aS'\nConceal and carry law coming to France...'
p188
aI0
aaa(lp189
(lp190
V553531413459660800
p191
aS'Update - AFP says gunman who has taken a hostage at kosher supermarket in Paris believed to be suspect in killing of policewoman on Thursday'
p192
aI0
aa(lp193
V553533391216582656
p194
aS"  U haven't sent Queen Bee Burley to France have u,if so it's only a matter of time be4 she comes out with a classic"
p195
aI0
aa(lp196
V553531861885259776
p197
aS' Doesnt sound like he has thought this one through'
p198
aI0
aa(lp199
V553535185695043584
p200
aS' Why would someone leave their ID-card? Thereafter allegedly seen at a gas station. Now hostage sit. Reports of'
p201
aI0
aa(lp202
V553535295111847936
p203
aS' a 3rd shooting at present\n\nDivert Operatons?'
p204
aI3
aa(lp205
V553532938508587008
p206
aS' Presume they wanted a Jewish hostage. So much for martyrdom. Why a kosher deli particularly?'
p207
aI0
aa(lp208
V554247300738854912
p209
aS'  really sad situation'
p210
aI0
aa(lp211
V553531601838432257
p212
aS' Does he have a script to take away more freedoms.'
p213
aI0
aa(lp214
V553538891228385280
p215
aS' Hunted Down, excellent police work, hope the other two follow soon'
p216
aI0
aa(lp217
V553532431517876225
p218
aS' looks like a deliberate attempt to split the French police action an cause confusion.'
p219
aI0
aa(lp220
V553542100143591426
p221
aS' which means the phsyco is ruthless and will shoot all. Attack is best defence.'
p222
aI0
aa(lp223
V553532010447527936
p224
aS'    AFP says gunman who has taken a hostage at kosher supermarket in Paris'
p225
aI0
aa(lp226
V553535680979427328
p227
aS' Why state kosher grocery? You, nor any other news agency say Christian grocery if it would of been the case'
p228
aI0
aaa(lp229
(lp230
V553566026030272512
p231
aS'Breaking: Two hostage situations in France are linked, Paris prosecutor says'
p232
aI0
aa(lp233
V553566385105027072
p234
aS' Time to arrest all the hostage takers relatives !'
p235
aI0
aa(lp236
V553566368952377344
p237
aS'  Can you please identify how LONG these have been ON? it is about 4p in that area. HOW MANY HOURS ON?'
p238
aI0
aa(lp239
V553567740104286209
p240
aS'   the 1st has been on for 7h30 and the second for 4hrs'
p241
aI2
aa(lp242
V553568091980824576
p243
aS'   Thanks. I think posing these situations in context helps us better understand. We are far away. Peace paris'
p244
aI3
aa(lp245
V553567980354031616
p246
aS' Of course they are, fear is best sold in bundles!'
p247
aI0
aa(lp248
V553568642965979136
p249
aS'  Ok thats good 2 know'
p250
aI0
aa(lp251
V553566115969105920
p252
aS'\n'
p253
aI0
aa(lp254
V553570156438638592
p255
aS" oh really maybe because it's  false flag"
p256
aI0
aa(lp257
V553566214174556160
p258
aS'PrayForParis  Breaking: Two hostage situations in France are linked, Paris prosecutor says'
p259
aI0
aa(lp260
V553566995984437248
p261
aS' knew that an hour ago by the BBC  news'
p262
aI0
aa(lp263
V553567072114839553
p264
aS'\n\nTime to ban religion.'
p265
aI0
aaa(lp266
(lp267
V553197863971610624
p268
aS'The last person killed in Charlie Hebdo attacks was Muslim police officer  '
p269
aI0
aa(lp270
V553198239399157761
p271
aS' The last person killed in Charlie Hebdo attacks was Muslim police officer   '
p272
aI0
aa(lp273
V553202633377599488
p274
aS"I thought you'd been an honourable exception not using that photo on your front page. I wish you'd use your freedom more wisely "
p275
aI0
aa(lp276
V553210433570881536
p277
aS"  absolutely disgusting! Using someone's absolutely terrifying murder for own gain. What about their family?"
p278
aI2
aa(lp279
V553213293964562434
p280
aS"I don't need to see that photo to know what happened was. You could publish this instead   "
p281
aI3
aa(lp282
V553213552337891328
p283
aS'  exactly!'
p284
aI4
aa(lp285
V553203833921613824
p286
aS' Islam never Support Terrorist.'
p287
aI0
aa(lp288
V553199058849103872
p289
aS' Was the last person a human being? PeaceOnEarth '
p290
aI0
aa(lp291
V553204674766331904
p292
aS"He is human. That's what matters most.  No one is asking of religion. Life is life."
p293
aI0
aa(lp294
V553212936995762176
p295
aS' fullstop for all \nNon muslim'
p296
aI0
aa(lp297
V553203187533230080
p298
aS'  blast this..'
p299
aI0
aa(lp300
V553199853820723201
p301
aS"Isn't it too late a NEWS..."
p302
aI0
aa(lp303
V553211195881426944
p304
aS' Sad. Islam is such a good religion but it has been taken over by criminals who unfortunately use Quran to defend themselves'
p305
aI0
aa(lp306
V553198499891007488
p307
aS' Showing his face in his final moments is crass insensitivity and totally unnecessary - his family are grieving'
p308
aI0
aa(lp309
V553201111159824384
p310
aS'  agree A Murphy'
p311
aI13
aa(lp312
V553201660953366528
p313
aS'  totally agree with you'
p314
aI13
aa(lp315
V553199418032521216
p316
aS'  I totally agree with you!'
p317
aI13
aa(lp318
V553891758271369216
p319
aS'Well said, I agree.  '
p320
aI13
aa(lp321
V553203171674181634
p322
aS' Just for the sake of good journalism, which one is it? '
p323
aI0
aa(lp324
V553205437043326976
p325
aS' how does printing this picture of a murder help?'
p326
aI0
aa(lp327
V553203804628598784
p328
aS' Islam never Support Terrorist'
p329
aI0
aa(lp330
V553201889685553153
p331
aS' '
p332
aI0
aa(lp333
V553203935088214017
p334
aS" Islam never Support Terrorist &amp; I'M Proud to be an Islam"
p335
aI0
aa(lp336
V553217526646439936
p337
aS'  I remember in high school when we learned about Islam there was an emphasis on peace'
p338
aI22
aaa(lp339
(lp340
V553586897168392192
p341
aS'BREAKING : Both Charlie Hebdo suspects killed as police storm building (police sources)  '
p342
aI0
aa(lp343
V553594257593106432
p344
aS' '
p345
aI0
aa(lp346
V553589974369845248
p347
aS'  Great News!!! Take no prisoners. These bastards need to be exterminated on sight'
p348
aI0
aa(lp349
V553587250232311810
p350
aS' good'
p351
aI0
aa(lp352
V553591055783051264
p353
aS'  bad. They should have been captured alive for a proper trial.'
p354
aI0
aa(lp355
V553591222456291328
p356
aS'  Yes, but think it was too dangerous.'
p357
aI4
aa(lp358
V553589683402579968
p359
aS' Both Charlie Hebdo suspects killed as police storm building (police sources)   FB'
p360
aI0
aa(lp361
V553757432455770112
p362
aS'  Did they get those" BOYS "who lashed oUt against  the C.H. artist?'
p363
aI6
aa(lp364
V553587367983194113
p365
aS'  Great job!!'
p366
aI0
aa(lp367
V553588165408473088
p368
aS'  For the record this pic. is the other hostage site, the CharlieHebdo murderers were taken outside Paris: Dammartin'
p369
aI0
aa(lp370
V553590837666656257
p371
aS'  sweet they are finally with Allah'
p372
aI0
aa(lp373
V553587662658207745
p374
aS'  BREAKING : Both Charlie Hebdo suspects killed as police storm building (police sources)  http'
p375
aI0
aaa(lp376
(lp377
V553184482241814530
p378
aS'I am still confused as to why these "highly trained" individuals left their ID in the getaway car. CharlieHebdo'
p379
aI0
aa(lp380
V553196247319064576
p381
aS' how about the story that friends of the third suspect Hamyd saw him in class 230km away during the attack'
p382
aI0
aa(lp383
V553184777315287040
p384
aS' I think they ultimately want their day in court and a platform upon which the world will look.'
p385
aI0
aa(lp386
V553186074311528448
p387
aS' Well.... '
p388
aI0
aa(lp389
V553192939888058369
p390
aS"  video also shows them using some not so great skills in the street (crossing each other's line of fire, etc)"
p391
aI0
aa(lp392
V553189048052105216
p393
aS'  Maybe the gunmen were better trained than the getaway driver? weakestlink'
p394
aI0
aa(lp395
V553200322231808001
p396
aS'  The answer will probably start with "S".\nStupid, or Staged and depends on Smart.\n;)'
p397
aI5
aa(lp398
V553195335661912064
p399
aS"  I suspect they were rather distracted. Can't think why..."
p400
aI0
aa(lp401
V553188436178264066
p402
aS"  Highly trained doesn't necessarily mean always smart."
p403
aI0
aa(lp404
V553187813668425728
p405
aS' As they say, smartest criminals make mistakes too!'
p406
aI0
aa(lp407
V553195879692517376
p408
aS" don't ask too many questions someone might accuse you of being a journalist"
p409
aI0
aa(lp410
V553184702530453505
p411
aS' maybe they want to get caught'
p412
aI0
aa(lp413
V553188394113986561
p414
aS"  Unless you've got military experience, its hard to understand how much stress your brain undergoes in battle."
p415
aI0
aa(lp416
V553197749240221699
p417
aS' OK. But why precisely an ID, why not Seresta tablets?  '
p418
aI12
aa(lp419
V553198944998543360
p420
aS"   it is not inconceivable that the terrorists were on anti-anxiety meds AND were amp'd."
p421
aI13
aa(lp422
V553498348674875393
p423
aS'   These men were clearly military trained...'
p424
aI12
aa(lp425
V553549483984711681
p426
aS'   the bullet groupings were super tight for automatic fire...'
p427
aI15
aa(lp428
V553549691129192448
p429
aS"   exactly. Something which isn't achieved through a day at the shooting range..."
p430
aI16
aa(lp431
V553187777689694208
p432
aS'  classic misdirection. Probably seals or MI6.'
p433
aI0
aa(lp434
V553197339813220352
p435
aS"   you can't be serious"
p436
aI18
aa(lp437
V553199295588212736
p438
aS" i could be, but I'm not.  "
p439
aI19
aa(lp440
V553199414659907584
p441
aS"   sometimes it's hard to tell"
p442
aI20
aa(lp443
V553184912258654208
p444
aS' In one respect; part of me hopes they give the French armed police a legitimate reason.....'
p445
aI0
aa(lp446
V553184841873633280
p447
aS' +1'
p448
aI0
aa(lp449
V553185403650322432
p450
aS' A "highly trained" member of my troop lost a pair of &gt;2000 night vision goggles once.'
p451
aI0
aa(lp452
V553185273639895040
p453
aS' The two left the ID of an probably innocent 18 yr old to try to put the Police off their track.'
p454
aI0
aa(lp455
V553185239791857664
p456
aS'. "Highly trained" by secret services'
p457
aI0
aa(lp458
V553185449150541824
p459
aS'  Really? Is that confirmed?'
p460
aI0
aa(lp461
V553187655434108928
p462
aS'  Maybe they were convinced they would die? Just guessing'
p463
aI0
aaa(lp464
(lp465
V553558982476828674
p466
aS'On Israeli TV, an Israeli woman speaks of her nephew,a mother with 6 month old baby, held hostage in the supermarket in Paris. JeSuisJuif'
p467
aI0
aa(lp468
V553571844562120704
p469
aS' I assume you mean niece?'
p470
aI0
aa(lp471
V553572054511779840
p472
aS' yes'
p473
aI1
aa(lp474
V553560647305560064
p475
aS'  '
p476
aI0
aa(lp477
V553570519052980225
p478
aS' Praying.'
p479
aI0
aa(lp480
V553562157968031744
p481
aS'  oh no, prayers for them.'
p482
aI0
aa(lp483
V553776086816137217
p484
aS"If I were Jewish, I won't go to the demo beside Hamas' friends.\n "
p485
aI0
aa(lp486
V553559392604684288
p487
aS' omg'
p488
aI0
aa(lp489
V553559105387118592
p490
aS' link?'
p491
aI0
aa(lp492
V553559389102026752
p493
aS' '
p494
aI8
aa(lp495
V553563604117913600
p496
aS'  actually, '
p497
aI9
aa(lp498
V553559355438923776
p499
aS' do you have a link?'
p500
aI0
aa(lp501
V553559484191092737
p502
aS'  - it was just live'
p503
aI11
aa(lp504
V553559569163902976
p505
aS'  thanks!'
p506
aI12
aaa(lp507
(lp508
V553470492565602305
p509
aS'Car chase under way in Paris as gunfight breaks out. Reports of hostages. Latest from Paris:  '
p510
aI0
aa(lp511
V553472346838007810
p512
aS' Seems france has gota real deal these dayss ! say safe ppl !'
p513
aI0
aa(lp514
V553471272353402880
p515
aS'  Stay safe my brothers in blue'
p516
aI0
aa(lp517
V553473556345290752
p518
aS"  got feed in English or Spanish?  I don't speak French. thx"
p519
aI0
aa(lp520
V553474160530587648
p521
aS' more to come??? more than 2 boys???'
p522
aI0
aa(lp523
V553471490734039040
p524
aS" Now it's too late. The harm has already been done."
p525
aI0
aaa(lp526
(lp527
V552821069036670976
p528
aS'4 CharlieHebdo cartoonists killed:\n\n- Charb\n- Cabu\n- Tignous\n- Georges Wolinski\n\nJeSuisCharlie '
p529
aI0
aa(lp530
V552822679712313344
p531
aS'GerekslamBudur  4 CharlieHebdo cartoonists killed:\n- Charb- Cabu- Tignous- Georges Wolinski '
p532
aI0
aa(lp533
V552824008379736064
p534
aS'  Not just "killed", murdered in cold-blood'
p535
aI0
aa(lp536
V552840282094727168
p537
aS'   Assassinated. As by the original muslim assassins, the "hashishim"'
p538
aI2
aa(lp539
V552823713876303872
p540
aS' sad so sad'
p541
aI0
aa(lp542
V552822567057510400
p543
aS' incredibly saddened by this'
p544
aI0
aa(lp545
V552827345435103234
p546
aS'And 8 anonymous. RT CharlieHebdo cartoonists killed:\n- Charb\n- Cabu\n- Tignous\n- Wolinski\nJeSuisCharlie '
p547
aI0
aa(lp548
V552839935280300032
p549
aS'  this is terrible :( prayers for Paris victims'
p550
aI6
aa(lp551
V552829975800578048
p552
aS' 4 CharlieHebdo cartoonists killed:\n\n- Charb\n- Cabu\n- Tignous\n- Georges Wolinski\n\nJeSuisCharlie  '
p553
aI0
aa(lp554
V552857373015289858
p555
aS'  Please RT - Download a hilarious FREE Koran PARODY for infidels of all ages - '
p556
aI8
aa(lp557
V552840084962443264
p558
aS'  We will never forget you.'
p559
aI0
aa(lp560
V552840094156349440
p561
aS' A SURGICAL INCISION'
p562
aI0
aa(lp563
V552824073244246016
p564
aS' Cabu was a cartoonist in my generation TV children show...its going to impact so much nohate please nohate'
p565
aI0
aa(lp566
V552836806065262594
p567
aS'  '
p568
aI0
aa(lp569
V552827902065385476
p570
aS" very sad, freedom defenders were killed by weak men that are unable to fight ideas with ideas and don't value lives."
p571
aI0
aa(lp572
V552834187426689024
p573
aS"  we're in a world where you get killed because of your ideas ! I wish they rest in peace "
p574
aI14
aaa(lp575
(lp576
V552816020403269632
p577
aS"Looks like every Charlie Hebdo cartoonist has been killed: 1. Charb - was on Al-Qaeda's hit list; 2. Cabu, 3. Wolinski, 4. Tignous"
p578
aI0
aa(lp579
V552830099046035456
p580
aS'  despicable cowardice. Sickening.'
p581
aI0
aa(lp582
V552831971370344449
p583
aS' Terror HAS Religion IF\n\nTerrorists seek inspiration in it &amp;\n\nReligious leaders provide moral justification for their acts'
p584
aI0
aa(lp585
V552817849845436416
p586
aS'Background see the French deep state.  '
p587
aI0
aa(lp588
V552817939196678144
p589
aS'  Then they must recruit some more cartoonists and continue publishing cartoons.'
p590
aI0
aaa(lp591
(lp592
V553164985460068352
p593
aS'The CharlieHebdo attack suspects have reportedly fired shots while robbing a petrol station  '
p594
aI0
aa(lp595
V553189559149035520
p596
aS' Best to shot to kill the muslim shits!!'
p597
aI0
aa(lp598
V553188194339258368
p599
aS' deluded thieving extremists, folks just need to read the right books and stay off drugs! CharlesHebdo'
p600
aI0
aa(lp601
V553301531340972032
p602
aS' I hope they catch these cowards alive so they can face justice.'
p603
aI0
aa(lp604
V553165585115516928
p605
aS' It appears Thelma &amp; Louise have rocket launchers, numpties! JeSuisCharlie'
p606
aI0
aa(lp607
V553165669043548160
p608
aS" Don't think they were trying to change the world,revenge was there motive"
p609
aI0
aa(lp610
V553188299758911488
p611
aS' Why is the term racism used when muslims try to justify acts of terrorism? Islam is a religion not a race.'
p612
aI0
aa(lp613
V553165237680353280
p614
aS' Scumy criminals'
p615
aI0
aa(lp616
V553166958397771776
p617
aS' Find them, torture them to fuck, then leave them out in the open tied up for the public to finish them off.'
p618
aI0
aa(lp619
V553165727231139840
p620
aS" find them. catch them. hang them publicly. send the message out zero tolerance will be shown. they don't deserve any humanity...."
p621
aI0
aa(lp622
V553187846035873793
p623
aS'" The CharlieHebdo attack suspects have reportedly fired shots while robbing a petrol station  Thieves'
p624
aI0
aa(lp625
V553167053742694400
p626
aS' little shits are just using religion to go around murdering innocent people because they are uneducated no-good thugs scumbags'
p627
aI0
aa(lp628
V553170739592179713
p629
aS' why have these worthless pricks not been taken out yet ?'
p630
aI0
aa(lp631
V553166961514127360
p632
aS' Freedom of speech !!!!!  '
p633
aI0
aaa(lp634
(lp635
V552811386259386370
p636
aS'At least 12 dead in the Paris shooting. Updated story and background info:  CharlieHebdo '
p637
aI0
aa(lp638
V552813075133636608
p639
aS' And  suggests that Muslims are unfairly picked upon because of bad economy in EU ? Liberal insanity @ its worst'
p640
aI0
aa(lp641
V552813563283509248
p642
aS'  The Liberal leftist should be feeling as good as DeBlasio today over this.'
p643
aI0
aa(lp644
V552812365692289025
p645
aS' I did not think the French knew what a gun was or how to use one. There arms expertise was on par with the Italians-experts at dropping'
p646
aI0
aa(lp647
V552814818986844160
p648
aS'  '
p649
aI0
aa(lp650
V552818696864157697
p651
aS' I condemn this cowardly attack carried out, attacking the hands are broken; asshole and ...'
p652
aI0
aa(lp653
V552811649602961408
p654
aS' That is what you get when you do not profile, when you pretend Islam is even remotely normal; when u are just plain stupid. WAKE UP.'
p655
aI0
aa(lp656
V552813011338285056
p657
aS' At least 12 dead in the Paris shooting. Updated story and background info: CharlieHebdo '
p658
aI0
aa(lp659
V552812526434385921
p660
aS' Our prayers goes out to good people of France at this moment.  Violence, hatred &amp; injustice have no place on our world...'
p661
aI0
aa(lp662
V552813020465074176
p663
aS'  elPresidente is probably gonna recognize ISIS now.'
p664
aI0
aa(lp665
V552812376375164928
p666
aS'I just feel sick RT" At least 12 dead in Paris shooting. Updated story:  CharlieHebdo '
p667
aI0
aa(lp668
V552822921698500608
p669
aS' RIP some actions are beyond comprehension. Sadly the dead most likely had nothing to do with the anger &amp; twisted mind of the gunmen.'
p670
aI0
aa(lp671
V552812767132934144
p672
aS' France as we know, the country which easily accept Moslem immigrant, ISIS CharlieHebdo wakeupDumbAss'
p673
aI0
aa(lp674
V552812548366798848
p675
aS'Awful. RT  At least 12 dead in the Paris shooting.  CharlieHebdo '
p676
aI0
aa(lp677
V552812482406780928
p678
aS' History shows disproportionate share of major religions starting in Middle East. That indicates people with no sense of humor.Stay out'
p679
aI0
aa(lp680
V552811563917123584
p681
aS" Islam. That's the only story and background info you need. Islam. CharlieHebdo"
p682
aI0
aa(lp683
V552814805456027648
p684
aS'More madness - tragic:  At least 12 dead in the Paris shooting. CharlieHebdo '
p685
aI0
aa(lp686
V552836538875531265
p687
aS' omg!!!'
p688
aI0
aaa(lp689
(lp690
V553476490315431937
p691
aS'Police convoy and helicopters are rushing to scene to detain Charlie Hebdo massacre suspects  '
p692
aI0
aa(lp693
V553480808947015680
p694
aS' . french news are reporting at least 2 ppl were killed and 20 ppl injuried in a gunfight with the islamists'
p695
aI0
aa(lp696
V553478083672424448
p697
aS'  bring back the guillotine'
p698
aI0
aa(lp699
V553479876632936448
p700
aS" All the suspects are called 'Lee Harvey Oswald'. That's amazing."
p701
aI0
aa(lp702
V553476849196879873
p703
aS' is ambulance in convoy? CharlieHebdo'
p704
aI0
aaa(lp705
(lp706
V552791196247269378
p707
aS"BREAKING: At least 10 killed in shooting at French satirical newspaper Charlie Hebdo, Paris prosecutor's office says. "
p708
aI0
aa(lp709
V552794023258099713
p710
aS'   SAD indeed......'
p711
aI0
aa(lp712
V552794111447941121
p713
aS" Oh and our anti-terrorist plan has just been put to its highest level in the part in which the drama's happening."
p714
aI0
aa(lp715
V552793325733183488
p716
aS' when will we hear good new like the people are living in peace, hmmmm.....killing every day'
p717
aI0
aa(lp718
V552792055122886656
p719
aS' 11 killed'
p720
aI0
aa(lp721
V552792955052761088
p722
aS' actually that wasnt me it was the cats present 2me but it was floping like aflipperedfish so i spatonitandthrewitinthegardenbed'
p723
aI0
aa(lp724
V552794765331144705
p725
aS' the headlesschookmpersonatingghekowithnotail gotaway oh unlesthecatateit anyway im stil last withonly 5beetles'
p726
aI5
aa(lp727
V552796152295219200
p728
aS' curly wurlys are so much nicer than half avocados dont u think?'
p729
aI6
aa(lp730
V552791830476386306
p731
aS' How could this happen?  France has pretty restrictive gun laws.'
p732
aI0
aa(lp733
V552793021256056833
p734
aS'  Indeed but illegal traffics still exist and gunfights are not that rare in hard districts'
p735
aI8
aa(lp736
V552792212056993792
p737
aS''
p738
aI0
aa(lp739
V552791516360765440
p740
aS' 11 Killed now'
p741
aI0
aa(lp742
V552792023078825984
p743
aS' oh my gosh'
p744
aI0
aa(lp745
V552795629768814592
p746
aS" BREAKING: At least 10 killed in shooting at French satirical newspaper Charlie Hebdo, Paris prosecutor's office says."
p747
aI0
aa(lp748
V552792048173334528
p749
aS' prayers being sent'
p750
aI0
aa(lp751
V552925665293778945
p752
aS'  thank you'
p753
aI14
aa(lp754
V552792980658987009
p755
aS" At least 10 killed in shooting at French satirical newspaper Charlie Hebdo, Paris prosecutor's office says. "
p756
aI0
aa(lp757
V552826438798172160
p758
aS'  Sad sad day'
p759
aI16
aa(lp760
V552795069691232258
p761
aS'  May God have mercy on our world. Not France this time for these killings'
p762
aI0
aa(lp763
V552791567401238529
p764
aS' 11 died'
p765
aI0
aa(lp766
V552792555944153088
p767
aS' Omg...what is the world turning into. ..'
p768
aI0
aa(lp769
V552792656552939523
p770
aS' 11 (9 journalists and 2 policemen) killed and 5 injured. Moreover witnesses affirm that they said "We\'re gonna avenge our prophet"'
p771
aI0
aa(lp772
V552792564554678272
p773
aS' A person killed  his own son &amp; daughter bcz authority neglected his rights of social security benefits. '
p774
aI0
aaa(lp775
(lp776
V552792913910833152
p777
aS'At least 11 dead in shooting at HQ of CharlieHebdo in Paris (police source)\n'
p778
aI0
aa(lp779
V552794232503951360
p780
aS' This is the future of Europe. Thank you...'
p781
aI0
aa(lp782
V552793275770613760
p783
aS'RT  At least 11 dead in shooting at HQ of CharlieHebdo in Paris (police source)\n'
p784
aI0
aa(lp785
V552793775740055552
p786
aS' At least 11 dead in shooting at HQ of CharlieHebdo in Paris (police source)\n'
p787
aI0
aa(lp788
V552793675697094657
p789
aS" Only time I was in France, traveled from Switzerland to the UK. Dirty country, terrible roads. People jammed together. Won't visit"
p790
aI0
aa(lp791
V552805269441622017
p792
aS'   France is a very beautiful country'
p793
aI4
aaa(lp794
(lp795
V552792802309181440
p796
aS'CharlieHebdo -  11 dead including 2 police in Paris shooting. Photo  AFP '
p797
aI0
aa(lp798
V552793899522355200
p799
aS' I strongly condemn this terrorist attack as a Turkish Muslim.I love my Prophet.But my Prophet rejects terrorism.'
p800
aI0
aa(lp801
V552795124288073729
p802
aS'  how do you know that the attackers were muslims?'
p803
aI1
aa(lp804
V552808923707617282
p805
aS' CharlieHebdo -  11 dead including 2 police in Paris shooting. Photo  AFP  tragedy'
p806
aI0
aa(lp807
V552834504520630274
p808
aS' ,  spotted your photo '
p809
aI3
aa(lp810
V552793142693744640
p811
aS' CharlieHebdo -  11 dead including 2 police in Paris shooting. Photo  AFP '
p812
aI0
aa(lp813
V552793785747660801
p814
aS'Et merde.  CharlieHebdo -  11 dead including 2 police in Paris shooting. Photo  AFP '
p815
aI0
aa(lp816
V552793901866971136
p817
aS'Oh my God !!! RT   CharlieHebdo - 11 dead including 2 police in Paris shooting. '
p818
aI0
aaa(lp819
(lp820
V552832817089236992
p821
aS'Stills from eyewitness video show two CharlieHebdo attackers wearing hoods &amp; black clothing shoot a wounded man '
p822
aI0
aa(lp823
V552852233901965313
p824
aS' brain washed fanatics. The amount of fervor needed to commit such a horrific act is unimaginable.'
p825
aI0
aa(lp826
V552837389870448640
p827
aS'Terribile  video show two CharlieHebdo attackers wearing hoods &amp; black clothing shoot a wounded man '
p828
aI0
aa(lp829
V552837806574170113
p830
aS'  and terrible too'
p831
aI2
aa(lp832
V552840158329200640
p833
aS'   I hope They are taken alive'
p834
aI0
aa(lp835
V552839062483369984
p836
aS'That poor man pictured was a Police Officer :( '
p837
aI0
aa(lp838
V552839226317094912
p839
aS'Police Officer down in picture, killed by armed terrorists who shouted, "the prophet is avenged" after slaughtering him. '
p840
aI0
aa(lp841
V552842578539073537
p842
aS'  so sad'
p843
aI6
aa(lp844
V552838782710321152
p845
aS'  the man might have been a wounded police officer as per Tv news coverage'
p846
aI0
aa(lp847
V552839829726060544
p848
aS'Inexpicable evil!  2 men wearing hoods &amp; black clothing shoot a wounded man CharlieHebdo ParisAttack '
p849
aI0
aaa(lp850
(lp851
V553549686129561600
p852
aS'UPDATE: Gunman in kosher grocery store is demanding the release of the suspects in CharlieHebdo shooting - Reports '
p853
aI0
aa(lp854
V553555102423089152
p855
aS"Yeah, that's going to happen! MT  Gunman in kosher grocery store is demanding the release of the suspects in CharlieHebdo shooting"
p856
aI0
aa(lp857
V553550346195574784
p858
aS' What a fucking nightmare'
p859
aI0
aa(lp860
V553551562732470272
p861
aS' UPDATE: Gunman in kosher grocery store is demanding the release of the suspects in CharlieHebdo shooting" &lt;-- :('
p862
aI0
aa(lp863
V553552662088937472
p864
aS"  On the face of it that's unusual because Islamic terrorists are usually suicidal. So I suspect it's a deliberately 1/2"
p865
aI3
aa(lp866
V553552734935601152
p867
aS'  2/2 impossible demand to "justify" a massacre when it\'s refused.'
p868
aI4
aa(lp869
V553555095317929985
p870
aS"  yes, it's certainly an indicator of how that ones going to pan out."
p871
aI5
aa(lp872
V553550000584540160
p873
aS' \nStopKillingInnocentPeople\nFreePalestine\nfreeBurma\nFreeSyria \nFreeKashmir\n'
p874
aI0
aa(lp875
V553550998497918976
p876
aS'  fuck you sarracen and stop islamization'
p877
aI7
aa(lp878
V553550482925715458
p879
aS'  Right a tradgedy happening in France and you post this. This is the reason the world hates Islam.'
p880
aI7
aa(lp881
V553551156081745920
p882
aS"  if u can see well the first picture is about Paris attack and it's hash tag is the one stop killing innocent ppl"
p883
aI9
aa(lp884
V553567997835882496
p885
aS'   dont waste time with A Hindu laim price ...they eat shit and urine of animals and spread Hates in world'
p886
aI9
aa(lp887
V553551171802382336
p888
aS"  Two wrongs won't suddenly become right and two tragedies can never be compared - neither by quantity nor by quality."
p889
aI7
aa(lp890
V553549946725875712
p891
aS' Well done. This kind of information is important to remain secret for the sake of the safety of the hostages!'
p892
aI0
aa(lp893
V553574899302670337
p894
aS" huh he doesn't even know who killed the journalists he's trying to get media coverage just kill him"
p895
aI0
aa(lp896
V553573995858382849
p897
aS'BREAKING: Gunman at kosher grocery store threatens to kill hostages if police storm terrorist brothers '
p898
aI0
aa(lp899
V553575543757471744
p900
aS' Mohammed is that Guy who promotes murdering women+children in the name of Peace....'
p901
aI15
aa(lp902
V553574968563625985
p903
aS'Who buys Kosher? MT  BREAKING: Gunman at kosher grocery store threatens to kill hostages if police storm terrorist brothers.'
p904
aI15
aa(lp905
V553584470264410113
p906
aS" where's Eddy Caplan when you need him"
p907
aI15
aa(lp908
V553574442014875648
p909
aS' We all heard of Mexican standoff. This is French version of it'
p910
aI15
aa(lp911
V553581318630821888
p912
aS' Nothing excuses the murder of innocent people, whether it is these poor hostages in France or civilians in Gaza.'
p913
aI15
aa(lp914
V553555141731700737
p915
aS'  When will countries &amp; the decent Ppl w/in realize MOSLEMS all follow Koran. Which means our death. Deport the bastards'
p916
aI0
aaa(lp917
(lp918
V553587013409325058
p919
aS"BREAKING Charlie Hebdo gunmen's hostage freed and safe after police assault"
p920
aI0
aa(lp921
V553587609759666177
p922
aS"Thank goodness for this: RT  BREAKING Charlie Hebdo gunmen's hostage freed and safe after police assault CharlieHebdo"
p923
aI0
aa(lp924
V553587377835614209
p925
aS" BREAKING CharlieHebdo gunmen's hostage freed and safe after police assault Hoping this is accurate."
p926
aI0
aa(lp927
V553587741720854528
p928
aS'  If so that hostage will be the person best able to give an insight into the attack, if the suspects were responsible...'
p929
aI2
aa(lp930
V553587586241794050
p931
aS"BREAKING: Charlie Hebdo gunmen's hostage freed and safe after police assault via "
p932
aI0
aa(lp933
V553587160088338432
p934
aS" BREAKING Charlie Hebdo gunmen's hostage freed and safe after police assault Thank God"
p935
aI0
aa(lp936
V553587387889373186
p937
aS" BREAKING Charlie Hebdo gunmen's hostage freed and safe after police assault\n\nYes French police"
p938
aI0
aa(lp939
V553588737750605825
p940
aS"  and Charlie Hebdo's gunmen are dead!!"
p941
aI6
aa(lp942
V553588653562150912
p943
aS' i am so fucking effraid now'
p944
aI6
aa(lp945
V553647665695956992
p946
aS' aw'
p947
aI6
aa(lp948
V553587794686513153
p949
aS'  thanks GOD !'
p950
aI6
aa(lp951
V553587882741747713
p952
aS"  Callum I'm so happy I was so scared!! Thanks for the support"
p953
aI6
aa(lp954
V553588971864084481
p955
aS'   So happy for him. ParisUnderAttack'
p956
aI6
aa(lp957
V553587422445846529
p958
aS"BREAKING Charlie Hebdo gunmen's hostage freed and safe after police assault  CharlieHebdo ParisAttacks"
p959
aI0
aa(lp960
V553587589417304065
p961
ag738
aI0
aa(lp962
V553587395942420480
p963
aS"RT  BREAKING Charlie Hebdo gunmen's hostage freed and safe after police assault attack paris charliehebdo"
p964
aI0
aaa(lp965
(lp966
V553538058440941568
p967
aS'MORE: France: Shooting, hostage-taking at kosher market in Paris; several reported wounded: '
p968
aI0
aa(lp969
V553538987554385920
p970
aS'Good morning everyone! -  Shooting, hostage-taking at kosher market in Paris; several reported wounded: '
p971
aI0
aa(lp972
V553539730449924096
p973
aS'Pray for hostages RT  Shooting, hostage-taking at kosher market in Paris; several reported wounded: '
p974
aI0
aa(lp975
V553540999465926657
p976
aS'RT Pray for hostages RT  Shooting, hostage-taking at kosher market in Paris; several reported wounded: '
p977
aI2
aa(lp978
V553539889237884928
p979
aS'  israel needs to send 2000 planes and start taking the Jews out of France'
p980
aI2
aa(lp981
V553538823989493760
p982
aS' MORE: France: Shooting, hostage-taking at kosher market in Paris; several reported wounded: '
p983
aI0
aa(lp984
V553539728067551232
p985
aS'RT  MORE: France: Shooting, hostage-taking at kosher market in Paris; several reported wounded: '
p986
aI0
aa(lp987
V553539293076279296
p988
aS' MORE: France: Shooting, hostage-taking at kosher market in Paris; several reported wounded: '
p989
aI0
aa(lp990
V553541618993618945
p991
aS'Of course Jews get dragged into this  MORE: France: Shooting, hostage-taking at kosher market in Paris: '
p992
aI0
aa(lp993
V553538912065712129
p994
aS"  They're really hungry."
p995
aI0
aa(lp996
V553538279073935360
p997
aS' MORE: France: Shooting, hostage-taking at kosher market in Paris; several reported wounded:  oh my.'
p998
aI0
aa(lp999
V553539141443788800
p1000
aS' For fucks sake get your act together Paris. What are you guys doing?'
p1001
aI0
aa(lp1002
V553538295855349761
p1003
aS' MORE: France: Shooting, hostage-taking at kosher market in Paris; several reported wounded: '
p1004
aI0
aa(lp1005
V553541672471396352
p1006
aS' MORE: France: Shooting, hostage-taking at kosher market in Paris; several reported wounded:  this makes me sick'
p1007
aI0
aa(lp1008
V553538596938846208
p1009
aS'GET YOUR FUCKING SHIT TOGETHER FRANCE\n'
p1010
aI0
aa(lp1011
V553539507786903552
p1012
aS'Breaking News: Shooting, hostage-taking at kosher market in Paris; several reported wounded:  '
p1013
aI0
aa(lp1014
V553538493738405888
p1015
aS' Locate more photo here! '
p1016
aI0
aa(lp1017
V553540050676219904
p1018
aS' &gt; Kinda endless rampage n killing spree which occured in front the nose of naives government. The damage hv been done !'
p1019
aI0
aa(lp1020
V553541495588802560
p1021
aS' MORE: France: Shooting, hostage-taking at kosher market in Paris; several reported wounded: '
p1022
aI0
aa(lp1023
V553539762624012288
p1024
aS' MORE: France: Shooting, hostage-taking at kosher market in Paris; several reported wounded: '
p1025
aI0
aaa(lp1026
(lp1027
V553152395371630592
p1028
aS'This widely shared cartoon about the CharlieHebdo attack is actually by  and not Banksy '
p1029
aI0
aa(lp1030
V553211957302816768
p1031
aS'  90'
p1032
aI0
aa(lp1033
V553226339743186944
p1034
aS'   Brilliant.'
p1035
aI0
aa(lp1036
V553171130757173249
p1037
aS' widely shared cartoon about the CharlieHebdo attack is actually by  and not Banksy '
p1038
aI0
aa(lp1039
V553170977061081088
p1040
aS'    are not afraid!'
p1041
aI0
aa(lp1042
V553153997226663936
p1043
aS'   Love this !'
p1044
aI0
aa(lp1045
V553154805905235968
p1046
aS'  The pen/pencil truly is mightier than the sword!'
p1047
aI0
aa(lp1048
V553195530273456128
p1049
aS'   pm grateful for that tweet'
p1050
aI0
aa(lp1051
V553255878628237313
p1052
aS'  '
p1053
aI0
aa(lp1054
V553161717803671552
p1055
aS' '
p1056
aI0
aa(lp1057
V553171643091398656
p1058
aS'   we must go on.'
p1059
aI0
aa(lp1060
V553171137782620160
p1061
aS' Cartoon abt CharlieHebdo is by  not Banksy  Lazy media often fooled by parody accounts'
p1062
aI0
aa(lp1063
V553196346375954433
p1064
aS'Does this cartoon means that hatred cartoons to holy values will continue?   '
p1065
aI0
aa(lp1066
V553220108219609088
p1067
aS'MT  widely shared cartoon about the CharlieHebdo attack  by  '
p1068
aI0
aa(lp1069
V553179390176419842
p1070
aS"Perhaps it's both.  "
p1071
aI0
aa(lp1072
V553178733059002368
p1073
aS'   Bullets will never stop the PEN!'
p1074
aI0
aa(lp1075
V553170581282377729
p1076
aS'Or is it... RT  Widely shared cartoon about CharlieHebdo attack actually by  not Banksy '
p1077
aI0
aa(lp1078
V553171006244663297
p1079
aS' How do you know? I thought the graffiti "artist" was supposed to be anonymous.  '
p1080
aI0
aa(lp1081
V553174304016584704
p1082
aS'By   via \nBy   via \nJeSuisCharlie CharlieHebdo'
p1083
aI0
aaa(lp1084
(lp1085
V553489393202499584
p1086
aS'Paris Murder Suspects Cornered with Hostage\n'
p1087
aI0
aa(lp1088
V553490069609136128
p1089
aS' NM - Sends electric waves to girls and threaten them, sends drug in my body and clumps my chest though radioactivity'
p1090
aI0
aa(lp1091
V553489581035622401
p1092
aS' \nStopKillingInnocentPeople\nFreePalestine\nfreeBurma\nFreeSyria '
p1093
aI0
aa(lp1094
V553489533526765568
p1095
aS' '
p1096
aI0
aa(lp1097
V553490860369653761
p1098
aS' NM - Sends electric waves to girls and threaten them, sends drug in my body and clumps my chest though radioactivity???????'
p1099
aI0
aa(lp1100
V553503751609143296
p1101
aS' Paris Murder Suspects Cornered with Hostage\n the criminals and rescue the hostages please'
p1102
aI0
aa(lp1103
V553491367159017472
p1104
aS' literally...when these terrorists attacks going to finish....\rPraying for the victims..'
p1105
aI0
aa(lp1106
V553490522523070464
p1107
aS' 1 hostage / war zone in Dammartin '
p1108
aI0
aa(lp1109
V553489471413714944
p1110
aS' \n\nIN UKRAINE HAVE GIVEN THE NAZI COUP, SUPPORTED BY NATO AND MEDIA COMMUNICATION,AS SEE PHOTO..\n'
p1111
aI0
aaa(lp1112
(lp1113
V553160652567498752
p1114
aS'French police: Said Kouachi and Cherif Kouachi wanted in Paris terror attack:  '
p1115
aI0
aa(lp1116
V553237817086967809
p1117
aS' COWARDS less than humans'
p1118
aI0
aa(lp1119
V553175352366100482
p1120
aS' look his face they are moeslim and they is vandals everywhere..shit moeslim.'
p1121
aI0
aa(lp1122
V553227312976908289
p1123
aS" Animals! Will they get their virgins in hell? Because, that's where they are going!"
p1124
aI0
aa(lp1125
V553161275904376832
p1126
aS' French police: Said Kouachi and Cherif Kouachi wanted in Paris terror attack:   him'
p1127
aI0
aa(lp1128
V553183997090889730
p1129
aS' there is NoModerateIslam EnoughIsEnough JeSuisCharlie'
p1130
aI0
aa(lp1131
V553170260791427072
p1132
aS' Face hidden but identity card left at the crime scene,if he was clever enough,he would have left it at home from the very onset'
p1133
aI0
aa(lp1134
V553183053523476480
p1135
aS' see what happens when you put down people.'
p1136
aI0
aa(lp1137
V553167760579379201
p1138
aS' Dead eyes.  No soul to these guys.'
p1139
aI0
aa(lp1140
V553169488104140801
p1141
aS" God's miracles are just inexplicable,who had imagined an executioner would leave his identity card at the crime scene"
p1142
aI0
aa(lp1143
V553179653238964225
p1144
aS' the religion of peace at it again..'
p1145
aI0
aa(lp1146
V553160945657462785
p1147
aS' French police: Said Kouachi and Cherif Kouachi wanted in Paris terror attack: the face of cowards'
p1148
aI0
aaa(lp1149
(lp1150
V552982613288157184
p1151
aS'Banksy says JeSuisCharlie in a beautiful way (vi  '
p1152
aI0
aa(lp1153
V552990796702814208
p1154
aS' Banksy says JeSuisCharlie in a beautiful way (vi  '
p1155
aI0
aa(lp1156
V552997008483811328
p1157
aS' Banksy says JeSuisCharlie in a beautiful way (vi  '
p1158
aI0
aa(lp1159
V552992417969082369
p1160
aS'RT  Banksy says JeSuisCharlie in a beautiful way (vi  '
p1161
aI0
aa(lp1162
V552983715224113152
p1163
aS' Banksy says JeSuisCharlie in a beautiful way (vi   True and so sad!'
p1164
aI0
aaa(lp1165
(lp1166
V553501357156876290
p1167
aS'CharlieHebdo suspects "prepared to die as martyrs", they tell police after making contact - French media '
p1168
aI0
aa(lp1169
V553501723743223808
p1170
aS" Good! Kill 'em and quickly! The 144 are getting frustrated beyond belief waiting for them both!"
p1171
aI0
aa(lp1172
V553502186999529473
p1173
aS'  put them through a wood chipper.'
p1174
aI1
aa(lp1175
V553503365100228609
p1176
aS' CharlieHebdo suspects "prepared to die as martyrs", they tell police after making contact.  Previsvel'
p1177
aI0
aa(lp1178
V553502087661645824
p1179
aS"  rubbish! Martyrs don't run away they should have faced consequences immediately."
p1180
aI0
aa(lp1181
V553503611104542720
p1182
aS'  so if theyd stayed at the scene they would have been martyrs?'
p1183
aI4
aa(lp1184
V553504747508879360
p1185
aS"  they would still be murderers I don't think anyone can consider this martyrdom"
p1186
aI5
aa(lp1187
V553501710497628162
p1188
aS' I think you mean morons.'
p1189
aI0
aa(lp1190
V553503523539652608
p1191
aS'. I hope they get their wish... '
p1192
aI0
aa(lp1193
V553502133979713536
p1194
aS" please don't starting saying these guys are marters, they are cold blooded murderers, you are fuelling what they want!"
p1195
aI0
aa(lp1196
V553502599358722048
p1197
aS' brainwashed!!'
p1198
aI9
aa(lp1199
V553501889254678528
p1200
aS" They should tell them, no you'll just die as murderers, not martyrs"
p1201
aI0
aa(lp1202
V553502135204478976
p1203
aS" Agreed. Relevant and timely clarification: martyrs are assassinated, they're not the assassins."
p1204
aI11
aa(lp1205
V553501672035856384
p1206
aS' No martyrs there, just cowards.'
p1207
aI0
aa(lp1208
V553504019742990336
p1209
aS'  \nPunk Cowards'
p1210
aI13
aa(lp1211
V553503331356651521
p1212
aS' no - set them free in the streets of Paris &amp; give them a 30 second head start.'
p1213
aI0
aa(lp1214
V553503876394262528
p1215
aS' They wont be martyrs.A martyr dies because of their religion.These rats will be dying because they murdered a muslim and others'
p1216
aI0
aa(lp1217
V553502788819632129
p1218
aS' Just kill them. Nothing to see here, only cowards. Nothing lost.'
p1219
aI0
aa(lp1220
V553502205748080640
p1221
aS' I don\'t think these type of Muslims know what the word "martyr" means.'
p1222
aI0
aa(lp1223
V553503283986563073
p1224
aS' '
p1225
aI0
aa(lp1226
V553503274176110592
p1227
aS' stop saying this every 2 minutes ur gloryfyinh it... NO! They will die kicking and screaming the cowards they are not heros'
p1228
aI0
aaa(lp1229
(lp1230
V552805488631758849
p1231
aS"At least 12 killed in today's attack on satirical magazine CharlieHebdo in Paris, official says. "
p1232
aI0
aa(lp1233
V552806943392145408
p1234
aS" Islamic terror. Empowered by media that makes excuses for it. Can't blame the Jews 4 this CNN. THIS is Islam"
p1235
aI0
aa(lp1236
V552806316855799808
p1237
aS' Western leaders created terrorists with various Arabic "springs" by  mercenaries jihadists.It was INEVITABLE to go west.'
p1238
aI0
aa(lp1239
V552808282440859648
p1240
aS'  the real problem was letting these moooslims into the free world.ask politicans why we need them .moohammadd bedded MR.ED'
p1241
aI2
aa(lp1242
V552845552770351105
p1243
aS'   u imposed dictators stole raw material both in africa and middle east'
p1244
aI3
aa(lp1245
V552851362808360960
p1246
aS'   we stole it,ur shieks got all the money &amp; enslaved u &amp; ur women folk attack them u cowards.'
p1247
aI4
aa(lp1248
V552807316031287296
p1249
aS" if state cannot control such irresponsible magazines making fun of people's faith then monsters come and do thejob.Face consequences"
p1250
aI0
aa(lp1251
V552811993145835520
p1252
aS"  Hey buddy, I'm insulting your faith. Now go fuck yourself."
p1253
aI6
aa(lp1254
V553121495791464448
p1255
aS'  you,baboon,  US media rejected to reprint those pictures finding them insulting.So go and fuck yourself u stupid boy'
p1256
aI7
aa(lp1257
V553556666969763841
p1258
aS"  Hey buddy, I'm still insulting your faith and there's nothing you can do about it. Now go fuck yourself, loser."
p1259
aI8
aa(lp1260
V552813327018385408
p1261
aS'  stay stupid and wait be the next victim.   such trash like u cannot blame monsters. U deserve be punished by monsters'
p1262
aI7
aa(lp1263
V552807494545076225
p1264
aS' Remember background: France, its Parliament &amp; Senate + some left-wgd municipalities bending over backwards to please Palestinians..'
p1265
aI0
aa(lp1266
V552806438440292352
p1267
aS' disturbing.'
p1268
aI0
aa(lp1269
V552805699349016577
p1270
aS' The Quran calls for the execution of who ever insults their prophet. They are doing what their hateful religion tells them to do.'
p1271
aI0
aa(lp1272
V552806494283251712
p1273
aS' insulting others people faith cannot be called freedom of speech. Chief editor is one to blame. I Do not justify monsters-jail them'
p1274
aI0
aa(lp1275
V552808456894169089
p1276
aS'  satire. Get it? Insults r free speech. Cowardice &amp; murder r not. Islamic terror is celebrated by its followers'
p1277
aI14
aa(lp1278
V552814605115064323
p1279
aS'  u r not getting my point -monsters must be penalized.  But entire society need to be responsible and not provoke monsters'
p1280
aI15
aa(lp1281
V552816063369326592
p1282
aS'  infidels that r breathing offends these monsters. Freedom offends them.'
p1283
aI16
aa(lp1284
V552817834628501505
p1285
aS'  reason forthis massacre is a concrete action of paper.not general principles of freedom.'
p1286
aI17
aa(lp1287
V552818721874378752
p1288
aS'  no it was Islamic teaching that freedom of speech is offensive to Islam, but killing is just dandy'
p1289
aI18
aa(lp1290
V552819783675432960
p1291
aS'  u r better expert.  I doubt but I am not expert.If so than my question why western govts tolerate all those Muslim groups'
p1292
aI19
aa(lp1293
V552806469217681409
p1294
aS" it was time . Cause no respect for any religion. If talk about Jews . It's anti semite.  If abuse Islam freedom of religion\nDeserve"
p1295
aI0
aa(lp1296
V552808195710664704
p1297
aS"  dif between satire &amp; hatred. No Islamic sense of humor. Jihadists don't know what free speech means"
p1298
aI21
aa(lp1299
V552812255805325313
p1300
aS'  what freedom when you abuse a religion. These guys are freedom fighters for protecting Islam.  Why no law protect religio'
p1301
aI22
aa(lp1302
V552815468252127232
p1303
aS"  freedom fighters?? Fighting AGAINST everyone else's freedom. Go away"
p1304
aI23
aa(lp1305
V552807385496973312
p1306
aS"  Jews don't kill anyone if offended. Christians don't. Only these disgusting excuses for human beings. It's a CARTOON!"
p1307
aI21
aa(lp1308
V552811444119797761
p1309
aS'   they are discusting animals'
p1310
aI25
aa(lp1311
V552812691509616642
p1312
aS'   Muslims feel they r being attacked everywhere not even their religion. These tend to happen. No protection'
p1313
aI26
aa(lp1314
V552815133299187712
p1315
aS"   Bcoz they r killing people! Slaughtering. 'In the name of their prophet' no one else is doing that."
p1316
aI27
aa(lp1317
V552816072902979584
p1318
aS'   sorry not in name of Prophet.  In the name of God. Ezra to Jews is son of God. Just u guys r idol worship'
p1319
aI28
aa(lp1320
V552819966006001664
p1321
aS'   I dont believe in any of them and certainly not worship them'
p1322
aI29
aa(lp1323
V552822741250736128
p1324
aS'    yeah i feel really sorry for them'
p1325
aI27
aa(lp1326
V552815313394229253
p1327
aS"   its not islamaphobia to call an Islamic terrorist what he is. Muslims r silent &amp; won't stand up"
p1328
aI27
aa(lp1329
V552810267772334080
p1330
aS"  u go to jail for anti semite.  Law. U can abuse any religion it's called freedom of speech. Be fair. It's hurtful"
p1331
aI25
aa(lp1332
V552812435321536512
p1333
aS"  anti semitism, inciting hatred is VERY dif than satire&amp;humor. Jews don't kill u forcartoon. Inciting hate tho is crime"
p1334
aI33
aa(lp1335
V552813227793321984
p1336
aS'  what more hatred u want after abusing n Makin fun of the prophet. These guys who drew created hatred. Not attackers'
p1337
aI34
aa(lp1338
V552814935688740867
p1339
aS'  free speech. They made fun of everyone! Only islamics kill ppl for a joke. A cartoon. A little offense. No excuse'
p1340
aI35
aa(lp1341
V552815524741001217
p1342
aS"  that's the problem. Muslims are serious in their only and one true religion. They won't abuse of jesus moses or mohammed"
p1343
aI36
aa(lp1344
V552816766414381057
p1345
aS'  pathetic waste of air. Thanks for showing the excuse for Islamic butchery'
p1346
aI37
aa(lp1347
V552848069629575168
p1348
aS'   also in the creation of the zionist state it was a norm for jews to dress up as muslims and bomb people'
p1349
aI36
aa(lp1350
V552900298516484098
p1351
aS"   go away. It's what arabs do"
p1352
aI39
aa(lp1353
V552848557766873090
p1354
aS'   u heard it from me no muslim unless brainwashed will kill innocent people even if u abuse prophet'
p1355
aI36
aa(lp1356
V552900577697751041
p1357
aS'   lots &amp; lots brainwashed then. Seeing ur comments shows how widespread'
p1358
aI41
aa(lp1359
V552813949427544064
p1360
aS' Muslims are being persecuted for their religion? In Pakistan, Nigeria or Paris?   CharlieHebdo'
p1361
aI35
aa(lp1362
V552814516262555648
p1363
aS'   hehe u Jews are good by changing subjects.open another topic. We are talking of anti semitsm and anti islam'
p1364
aI43
aa(lp1365
V552815897425891328
p1366
aS"   anti semitism results in ppl killing Jews. But Jews don't slaughter anyone for offensive cartoons"
p1367
aI44
aa(lp1368
V552816386154590208
p1369
aS"  don't think any1 is having trouble understanding what this is about. Kind if silly to compare this to anti-Semitism"
p1370
aI45
aa(lp1371
V552814354588909569
p1372
aS' I have to say though, the honesty about the murderous tenets of your religion is refreshing.   CharlieHebdo'
p1373
aI43
aa(lp1374
V552814843288223744
p1375
aS'   look you fool we are talking revenge. If u abuse any religion . Revenge will be taken that simple'
p1376
aI47
aa(lp1377
V552816383185010688
p1378
aS'   thanks tho for being honest about the Islamic excuses for murder'
p1379
aI48
aa(lp1380
V552816281737363458
p1381
aS"   BS. NO other religion teaches that it's great to kill everyone else for whatever stupid reason islamics do"
p1382
aI48
aa(lp1383
V552816726144864258
p1384
aS"   yes because islam is true religion. They don't take Bullshit from fools like Charlie Have died."
p1385
aI50
aa(lp1386
V552817356779433984
p1387
aS'   well if murder, pedophilia &amp; hate is ur true religion, then u deserve the hatred &amp; offense u get! Done w/u'
p1388
aI51
aa(lp1389
V552817984524152832
p1390
aS"   hatred pedophile and disgrace in Judaism . We as Muslims don't accept . What freedom if abuse Islam. Death"
p1391
aI52
aa(lp1392
V552818473806491650
p1393
aS'   go away. Sorry excuse for human'
p1394
aI53
aa(lp1395
V552818300124545025
p1396
aS'  do you live in an actual tent? And is your name Saladin or something'
p1397
aI53
aa(lp1398
V552818667293904898
p1399
aS'  hehe Jews always change subject. If they lose cause of truth. Be serious. How many died under you in israel'
p1400
aI55
aa(lp1401
V552819494372921346
p1402
aS'  11million arabs/Muslims killed by arab/Muslims since 1948. U r offended by eachother'
p1403
aI56
aa(lp1404
V552819928315617281
p1405
aS"  don't make up stories. That is the way of Jews.  Always lying. There is it media . You cannot hide and lie. Killers"
p1406
aI57
aa(lp1407
V552820213129809921
p1408
aS'  I feel that the intellectual level of this discourse has kinda gone to hell'
p1409
aI58
aa(lp1410
V552820677338595328
p1411
aS'  easy just accept the truth and accept. You see abuse people not religion any where in the world. All religions'
p1412
aI59
aa(lp1413
V552819812435369987
p1414
aS'   11million arabs/Muslims killed by arab/Muslims since 1948. U r offended by eachother '
p1415
aI57
aa(lp1416
V552819213165801472
p1417
aS'  heh heh Muslims always full of crap. What alternate universe you live in'
p1418
aI56
aa(lp1419
V552816942193467396
p1420
aS'  lol the true all-embracing, multicultural attitude of "moderate" Islam comes out'
p1421
aI51
aa(lp1422
V552815787484778497
p1423
aS" yeah? I'd like to see you respond this way to anti-Semitic children's programs on Gaza tv  "
p1424
aI48
aa(lp1425
V552816366101614592
p1426
aS'   you fool . We r not talking of Gaza. Anti semitsm and no laws anti protection of islam'
p1427
aI64
aa(lp1428
V552816957439741952
p1429
aS"   freedom of speech protects everyone. Islam just doesn't believe in freedom or democracy. Just death"
p1430
aI65
aa(lp1431
V552817506964873216
p1432
aS'   where is Islam protected under freedom of speech.  Show me any law. No law. So these guys right to kill'
p1433
aI66
aa(lp1434
V552819015282737153
p1435
aS"   civilized countries have civilized laws that protect everyone. Islamics don't get 2 murder &amp; say defense"
p1436
aI67
aa(lp1437
V552819482435932160
p1438
aS'   what civilization.  If you can abuse a religion and no law to protect any religion. So Muslims are guardians'
p1439
aI68
aa(lp1440
V552816676249403393
p1441
aS'   why are we not talking of Gaza, ya sidi?'
p1442
aI65
aa(lp1443
V552816583614013440
p1444
aS"   no it's ok to offend everyone else. Precious pedophile needs to be protected"
p1445
aI64
aa(lp1446
V552817149673082882
p1447
aS'   pedophiles is accepted in Judaism.  Read torah.  Who gave these fools right to make fun of Islam'
p1448
aI71
aa(lp1449
V552817607452016640
p1450
aS"  lol moron I'm a rabbinical student. Don't tell me to find non existent things in the Torah"
p1451
aI72
aa(lp1452
V552817983572017153
p1453
aS'  but it seems clear that you agree that the legitimate Islamic response to the CharlieHebdo satire was murder. '
p1454
aI72
aa(lp1455
V552817735160176641
p1456
aS"   it is a disgrace in Judaism. And christianity. It's applauded in Islam. Child rape pretending 2 b marriage"
p1457
aI72
aa(lp1458
V552818327521734657
p1459
aS'   come on Rabbis have wives as young as six. Hehehe. What is that not rape and pedophiles'
p1460
aI75
aa(lp1461
V552818958533816321
p1462
aS'  I have a lamp that I will sell you. If you rub it long enough a genie will emerge and grant you three wishes'
p1463
aI76
aa(lp1464
V552808637719408641
p1465
aS'  islam is not a religion its a brainwashed cult.'
p1466
aI21
aa(lp1467
V552811728447078400
p1468
aS'  hehehe yah like Judaism Christianity and worst hinduism. This is what fools in churches call it. Because they are afraid'
p1469
aI78
aa(lp1470
V552812476019269632
p1471
aS"  but the priests,rabbis&amp; ministers don't preach(kill all non moooslims)  not yet  but lets hope we get it on.easy prey."
p1472
aI79
aa(lp1473
V552844861322592256
p1474
aS'   so is free speach'
p1475
aI78
aa(lp1476
V552851028287422464
p1477
aS'   settle down just came back from emirates,arabs r just fine its these brainwashed moooslims that r cause'
p1478
aI81
aa(lp1479
V552805847777415168
p1480
aS" At least 12 killed in today's attack on satirical magazine CharlieHebdo in Paris, official says. "
p1481
aI0
aa(lp1482
V552807670710038528
p1483
aS' prophet moohammadd bedded horses,nothing more nothing less'
p1484
aI0
aa(lp1485
V552805838323478528
p1486
aS' Today we mourn with France but in the weeks to come France needs to do some soul searching and introspection'
p1487
aI0
aa(lp1488
V552807055275220996
p1489
aS'  and lots of deportation'
p1490
aI85
aa(lp1491
V552805987053490179
p1492
aS' Also security was abysmal and should have been heightened when so many threats had already happened towards this media agency'
p1493
aI0
aa(lp1494
V552807834078171136
p1495
aS"  In France all Jewish official buldings including schools have to be tightly secured. Can't have police everywhere..."
p1496
aI87
aa(lp1497
V552809757225287681
p1498
aS'  true but when you mock a religion every day - one should heighten security'
p1499
aI88
aa(lp1500
V552810175049244672
p1501
aS'  CH mocks all religions. Only one replies with assault rifles. + there were policement there. Killed too.'
p1502
aI89
aa(lp1503
V552810426422267904
p1504
aS'  There is no excuse - it is unacceptable always - we know in America how it feels'
p1505
aI90
aa(lp1506
V552809852834418688
p1507
aS'  Hearts and prayers for families of these police and journalists'
p1508
aI88
aaa(lp1509
(lp1510
V552810448324943872
p1511
aS'CHARLIEHEBDO SHOOTING: Gunmen shouted \'we have avenged the prophet" during attack - reports  '
p1512
aI0
aa(lp1513
V552814682839326720
p1514
aS' Many religions started in mid east.It indicates peoples with no sense of humor.Leave them alone.'
p1515
aI0
aa(lp1516
V552812627378724864
p1517
aS' Must be a very weak god, that Mohammad that it uses these beasts for revenge for humor, which only brings shame and disgust apon it'
p1518
aI0
aa(lp1519
V552810626503176192
p1520
aS' sounds like a sketch from family guy'
p1521
aI0
aa(lp1522
V552811928188645376
p1523
aS' Extremism and Terrorism has no place in Islam ParisAttack  \n'
p1524
aI0
aa(lp1525
V552811835057909761
p1526
aS" \n     ISLAMIC SCHOLARS SHOULD COME FORWARD TO END 'JIHAD' !\n       IT IS INHUMAN &amp; WOULD DESTROY THE CREDIBILITY OF ISLAM !"
p1527
aI0
aa(lp1528
V552817687257415681
p1529
aS"  Or even better, how about the world just abolishes islam all together. It's nothing but a cancer to the world."
p1530
aI5
aa(lp1531
V552811357889134592
p1532
aS' This is a fair revenge! French planes with impunity in Afghanistan, Syria, Libya and Iraq!'
p1533
aI0
aa(lp1534
V552810702990475265
p1535
aS' sure they did'
p1536
aI0
aa(lp1537
V552811730204499969
p1538
aS' this is messed up'
p1539
aI0
aa(lp1540
V552813350745153536
p1541
aS' so sad.'
p1542
aI0
aa(lp1543
V552811887684251648
p1544
aS' cc '
p1545
aI0
aa(lp1546
V552811591683821568
p1547
aS'  '
p1548
aI0
aa(lp1549
V552811541884858368
p1550
aS' Did the Gunman knew that he will rot in Hell for this ?'
p1551
aI0
aa(lp1552
V552812469958111232
p1553
aS' Ppl use religion as excuse to do violent acts. US invading Iraq shows how much violence is naturally born into humans. science'
p1554
aI0
aa(lp1555
V552811450226733058
p1556
aS' CHARLIEHEBDO SHOOTING: Gunmen shouted \'we have avenged the prophet" during attack" Now that\'s tolerance for you'
p1557
aI0
aa(lp1558
V552814012791279617
p1559
aS' pussies'
p1560
aI0
aa(lp1561
V552813534334038017
p1562
aS' its a trap....conspiracy against Islam...cant say no more...'
p1563
aI0
aa(lp1564
V552811198543331328
p1565
aS' they screamed Allahu Akbar just like those who scream Novorossiya'
p1566
aI0
aaa(lp1567
(lp1568
V553107921081749504
p1569
aS'Two shot in Paris, including traffic cop, as manhunt continues for CharlieHebdo suspects  '
p1570
aI0
aa(lp1571
V553116396469510144
p1572
aS' Theres also an explosion in a restaurant there.'
p1573
aI0
aa(lp1574
V553111518230106112
p1575
aS' It happen 1 hour ago, not very reactive, big issues with Data evaluation sourcechecking seriousinvestifation'
p1576
aI0
aa(lp1577
V553115272031113216
p1578
ag738
aI0
aa(lp1579
V553132986087268352
p1580
aS"  Pencils as 9-11? All the cartoon responses are cartoonists as victims. Where's the defiance?"
p1581
aI0
aa(lp1582
V553109367042887680
p1583
aS'  '
p1584
aI0
aaa(lp1585
(lp1586
V553543369604210689
p1587
aS'An 11-month old baby is among the hostages at the Kosher supermarket in Paris. Unbearably sad.\n'
p1588
aI0
aa(lp1589
V553543671308886016
p1590
aS" sorrow is not the emotion one should have at this stage. maybe afterwards. right now, it's appropriate to be filled w rage"
p1591
aI0
aa(lp1592
V553543653424386049
p1593
aS' rumors say hostages are 1 women and 4 childrens---'
p1594
aI0
aa(lp1595
V553545251651342337
p1596
aS' really sad. Ever seen fotos of gaza babies ? All babies r equal i suppose'
p1597
aI0
aa(lp1598
V553544356700094464
p1599
aS' is it just a coincidence that kosher market thing or a missibg part of the picture ?'
p1600
aI0
aa(lp1601
V553549440263675904
p1602
aS" u r among the only journalists saying kosher market &amp; not calling it something generic. If it's kosher it was targeted. Thx"
p1603
aI0
aa(lp1604
V553549946738446336
p1605
aS'  Hashtag kosher shows lots of journalists are referring to it as a kosher supermarket.'
p1606
aI5
aa(lp1607
V553552954297692160
p1608
aS"  that's my mistake. Thanks!"
p1609
aI6
aa(lp1610
V553553099470946304
p1611
aS"  No problem! Wish it weren't such a horrible situation."
p1612
aI7
aa(lp1613
V553544770430464000
p1614
aS'RT  An 11-month old baby is among the hostages at the Kosher supermarket in ParisAttack'
p1615
aI0
aa(lp1616
V553547724860456961
p1617
aS'*Mutes Universe*'
p1618
aI0
aa(lp1619
V553548166629691392
p1620
aS" It's that kind of day. The kind where you want to go back to bed with some fiction to distract."
p1621
aI10
aa(lp1622
V553548306383912960
p1623
aS" Or the day you wonder why you didn't just study creative writing and adopt some nice cats in Vermont.... or something."
p1624
aI11
aa(lp1625
V553548731690520576
p1626
aS' I could become a novelist and live in the woods of northern Maine...with no internet. And ditto cat(s)'
p1627
aI12
aa(lp1628
V553550815940837376
p1629
aS' can i borrow your universal mute button?'
p1630
aI10
aa(lp1631
V553551580801536000
p1632
aS" rather than being a 'lone-wolf copy-cat' the fact the attacker is so well-armed points to a far more worrying escalation."
p1633
aI10
aa(lp1634
V553548128138584065
p1635
aS" it's a dialogue isn't it? please don't take my comment as attacking. i am not sad.. yet. im stark raving mad."
p1636
aI10
aa(lp1637
V553548084656214016
p1638
aS" The pause button is broken and there is no rewind function.\nIt's terrifying when you think about it."
p1639
aI10
aaa(lp1640
(lp1641
V553508098825261056
p1642
aS'Police have surrounded this building where the suspected CharlieHebdo attackers are holed-up  '
p1643
aI0
aa(lp1644
V553511652587360256
p1645
aS' Media have surrounded this building. '
p1646
aI0
aa(lp1647
V553518690872745985
p1648
aS" so much for Local and Int'l Media adhering to a NO Publish of the building. Brilliant idiots as usual NBC"
p1649
aI0
aa(lp1650
V553521549395771392
p1651
aS" ParisShooting CharlieHebdo It's time to FINISH THEM!!!"
p1652
aI0
aa(lp1653
V553538244923883520
p1654
aS'  they want to be killed they want to be martyrs that would fuel them... Capture them and isolate them In prison'
p1655
aI3
aa(lp1656
V553555326125895680
p1657
aS"  Well, that's a good idea too. But...they're gonna end up life in prison and that means that they're gonna live on taxes..."
p1658
aI4
aa(lp1659
V553573926786580480
p1660
aS"  French taxes... But the French don't treat prisoners as well as we do"
p1661
aI5
aa(lp1662
V553551811282751488
p1663
aS' what cowards . Good will always conquer evil'
p1664
aI0
aa(lp1665
V553513832971513856
p1666
aS' destroy them and accelerate their trip to hell'
p1667
aI0
aa(lp1668
V553509365081456640
p1669
aS' bury them in their hole'
p1670
aI0
aa(lp1671
V553509546602553344
p1672
aS"  didn't the cops ask you NOT to give this kind of detail?  what is wrong with you?"
p1673
aI0
aa(lp1674
V553538031513530368
p1675
aS'  capture them do not kill they want to be killed'
p1676
aI0
aa(lp1677
V553540518853242880
p1678
aS" the only reason why u don't kill them at this point is if u think they have info about future terrorist attacks."
p1679
aI11
aa(lp1680
V553540761632120832
p1681
aS' no they want to be martyrs they want to be killed it makes them Heroes to the other terrorists'
p1682
aI12
aa(lp1683
V553541311484014592
p1684
aS" they are heroes to their followers no matter what. Don't give them a way to get out instructions to trigger future attacks."
p1685
aI13
aa(lp1686
V553541660408545280
p1687
aS" I don't think they are leaders  the leaders don't do the real terrorism... But I get what you are saying tho"
p1688
aI14
aa(lp1689
V553542076999409664
p1690
aS' they could be middle managers. They could lead a group.'
p1691
aI15
aa(lp1692
V553542207731662850
p1693
aS' they were sick of the dead end job so they went postal... Zing! Lol sorry'
p1694
aI16
aa(lp1695
V553524499803815937
p1696
aS' these the same Islamic Terrorists you  claimed were dead a couple days ago?'
p1697
aI0
aaa(lp1698
(lp1699
V553534838880608256
p1700
aS'BREAKING Gunman in policewoman killing suspected in new Paris hostage-taking: source'
p1701
aI0
aa(lp1702
V553535581586993152
p1703
aS' BREAKING Gunman in policewoman killing suspected in new Paris hostage-taking: source source please?'
p1704
aI0
aa(lp1705
V553539103879200769
p1706
aS'Good Lord - this crisis in France is spreading.Prayers for the hostages.     '
p1707
aI0
aa(lp1708
V553535440821575682
p1709
aS'Vincennes Montrouge RT  BREAKING Gunman in policewoman killing suspected in new Paris hostage-taking: source'
p1710
aI0
aa(lp1711
V553535415073132544
p1712
aS' 5 hostages (including women and childs)'
p1713
aI0
aa(lp1714
V553535353790152705
p1715
aS' give the source please'
p1716
aI0
aaa(lp1717
(lp1718
V552793679082311680
p1719
aS'11 confirmed dead, Francois Hollande to visit scene of attack - latest from Paris:  '
p1720
aI0
aa(lp1721
V552794951487352832
p1722
aS'Sickening " 11 confirmed dead, Francois Hollande to visit scene of attack:  '
p1723
aI0
aa(lp1724
V552798473389867009
p1725
aS' Photo shows attackers are at least trained &amp; possibly experienced with combat weapons. More tracking needed of overseas fighters.'
p1726
aI0
aa(lp1727
V552800063756709888
p1728
aS".  Won't happen. Dover checks are focused mainly on de-worming treatments for dogs."
p1729
aI2
aa(lp1730
V552798644244860928
p1731
aS'.  Well,  are noting that whoever fired those bullets knew how to fire the gun properly. PN office dead?'
p1732
aI0
aa(lp1733
V552796160101220352
p1734
aS'Hi  this is the photo of our journalist  please credit him at least.'
p1735
aI0
aa(lp1736
V552796679322492928
p1737
aS'Je disais quoi ? Smh.. RT " Hi  this is the photo of our journalist  please credit him at least."'
p1738
aI5
aa(lp1739
V552796934134845440
p1740
aS' Hi  this is the photo of our journalist  please credit him at least. lol business .. Encore et encore'
p1741
aI5
aa(lp1742
V552796638436397056
p1743
aS'    indeed, this is called "courtesy" (thing often unknown by british papers)'
p1744
aI5
aa(lp1745
V552801740652036096
p1746
aS' lol nd u lot wanted to go paris to get our headgears ripped off  '
p1747
aI0
aa(lp1748
V552802770873761793
p1749
aS'  nah not even on that man, habibi marseille '
p1750
aI9
aa(lp1751
V552800628012224512
p1752
aS' Wild West Politics: Western Europe is suffering from its internal contradictions; welcome to the tribal politics of the future.'
p1753
aI0
aaa(lp1754
(lp1755
V552785375161499649
p1756
aS'BREAKING: 10 reportedly shot dead at Paris HQ of French weekly Charlie Hebdo '
p1757
aI0
aa(lp1758
V552785851655393281
p1759
aS' How dreadful.'
p1760
aI0
aa(lp1761
V552788073340489728
p1762
aS' why does one feel that this may have something to so with freedom of speech - '
p1763
aI0
aa(lp1764
V552785877748158464
p1765
aS'Nowhere is safe anymore? "'
p1766
aI0
aaa(lp1767
(lp1768
V553503184174710784
p1769
aS"CharlieHebdo shooting suspects tell police they 'prepared to die as martyrs' - French media  "
p1770
aI0
aa(lp1771
V553504209635536896
p1772
aS'Via  '
p1773
aI0
aa(lp1774
V553505371260588032
p1775
aS' dying in  the business of killing people is the basis for martydom?\nCharlieHebdo'
p1776
aI0
aa(lp1777
V553507708574244864
p1778
aS"ERTE  CharlieHebdo shooting suspects tell police they 'prepared to die as martyrs' -   "
p1779
aI0
aa(lp1780
V553506057432342528
p1781
aS' then make it so'
p1782
aI0
aa(lp1783
V553506283958333440
p1784
aS" don't kill them! If they get killed i wana see their faces! Don't want another Bin laden incident, do we!"
p1785
aI0
aa(lp1786
V553505863827079168
p1787
aS' who gave them thinking of martyr? Those continually hurting Muslims by their irrespective behavior for Messenger of God.'
p1788
aI0
aa(lp1789
V553503820425093120
p1790
aS' die like cowards scum'
p1791
aI0
aa(lp1792
V553504861321703424
p1793
aS"  Try and arrest them first so they can be put in jail to rot. A much better end for them. They'll end up as homosexual."
p1794
aI0
aa(lp1795
V553504854794969088
p1796
aS' CharlieHebdo attack suspects tell police,"prepared to die as martyrs"French media  '
p1797
aI0
aa(lp1798
V553507716329529344
p1799
aS' May god grant them their wish. Hopefully slowly and painfully.'
p1800
aI0
aa(lp1801
V553504306998300672
p1802
aS' then kill these bastards'
p1803
aI0
aa(lp1804
V553503712157904898
p1805
aS' they will not die as martys - they will die as the dogs that they are. Only hellfire will await them.'
p1806
aI0
aa(lp1807
V553504624830066688
p1808
aS'   \nDogs are waaaaay better than these bastards'
p1809
aI12
aa(lp1810
V553503810073952257
p1811
aS' Why are they running? Coward.!'
p1812
aI0
aa(lp1813
V553503409807327232
p1814
aS"'As dogs' "
p1815
aI0
aaa(lp1816
(lp1817
V553576010898497536
p1818
aS'Breaking: Gunman at Paris store threatens to kill hostages if CharlieHebdo suspects are harmed. '
p1819
aI0
aa(lp1820
V553578217387614208
p1821
aS'Omg  Breaking: Gunman at Paris store threatens to kill hostages if CharlieHebdo suspects are harmed. '
p1822
aI0
aa(lp1823
V553577770983645186
p1824
aS'  Gunman had meeting with former president Sarkozy in 2009 '
p1825
aI0
aa(lp1826
V553577813056716800
p1827
aS' Breaking: Gunman at Paris store threatens to kill hostages if CharlieHebdo suspects are harmed.  smh'
p1828
aI0
aa(lp1829
V553577721939251201
p1830
aS' how would they know if they are harmed or not? Is there some kind of communication between the suspects?'
p1831
aI0
aa(lp1832
V553579107620237312
p1833
aS' Breaking: Gunman at Paris store threatens to kill hostages if CharlieHebdo suspects are harmed.  smfh'
p1834
aI0
aa(lp1835
V553577189837258752
p1836
aS' seems it would behoove police to kill that particular gunman first then.'
p1837
aI0
aa(lp1838
V553576829345628160
p1839
aS' Breaking: Gunman at Paris store threatens to kill hostages if CharlieHebdo suspects are harmed. '
p1840
aI0
aa(lp1841
V553576199268876288
p1842
aS' Well that guys a nut.'
p1843
aI0
aa(lp1844
V553577135777255424
p1845
aS' Before attack, French began ceding control of neighborhoods to Islamists...'
p1846
aI0
aa(lp1847
V553577990060539904
p1848
aS' the terrorist had meeting with prsident Sarkozy in 2009  '
p1849
aI9
aa(lp1850
V553577850461519872
p1851
aS' Breaking: Gunman at Paris store threatens to kill hostages if CharlieHebdo suspects are harmed.  What a mess'
p1852
aI0
aa(lp1853
V553576559085240320
p1854
aS' \nStopKillingInnocentPeople\nFreePalestine\nfreeBurma\nFreeSyria \nFreeKashmir\n'
p1855
aI0
aaa(lp1856
(lp1857
V552978099357237248
p1858
aS"Most compelling image I've seen to come out of horrifying events in Paris, courtesy of Banksy. JeSuisCharlie "
p1859
aI0
aa(lp1860
V553199352060325888
p1861
aS'  It is brilliant but it is not by Banksy its by '
p1862
aI0
aa(lp1863
V552988724288827395
p1864
aS'+1 |  : "Most compelling image I\'ve seen to come out of horrifying events in Paris, courtesy of Banksy. '
p1865
aI0
aa(lp1866
V552982992248123393
p1867
aS'Beautiful: MT  courtesy of Banksy. JeSuisCharlie  France'
p1868
aI0
aaa(lp1869
(lp1870
V553589051044151296
p1871
aS'Several hostages freed at Jewish supermarket in Paris. Photo Thomas Samson AFP '
p1872
aI0
aa(lp1873
V553596772401299456
p1874
aS' Several hostages freed at Jewish supermarket in Paris. Photo Thomas Samson AFP '
p1875
aI0
aa(lp1876
V553590068271529985
p1877
aS'Young child far right. RT Several hostages freed at Jewish supermarket in Paris. Photo Thomas Samson AFP '
p1878
aI0
aa(lp1879
V553589785202544640
p1880
aS'FLASH:  Several hostages freed at Jewish supermarket in Paris. Photo Thomas Samson AFP '
p1881
aI0
aa(lp1882
V553589370721013760
p1883
aS' Several hostages freed at Jewish supermarket in Paris. Photo Thomas Samson AFP '
p1884
aI0
aa(lp1885
V553589976416260096
p1886
aS' Several hostages freed at Jewish supermarket in Paris. Photo Thomas Samson AFP '
p1887
aI0
aa(lp1888
V553602592828563456
p1889
ag738
aI0
aa(lp1890
V553589181436284930
p1891
aS' Several hostages freed at Jewish supermarket in Paris. Photo Thomas Samson AFP  '
p1892
aI0
aaa(lp1893
(lp1894
V553512735192141826
p1895
aS'Update - AFP: an unnamed police source says the killing of the policewoman in Paris on Thursday is linked to the CharlieHebdo attack'
p1896
aI0
aa(lp1897
V553820631087988736
p1898
aS' no shit JeSuisCharlie'
p1899
aI0
aa(lp1900
V553513916572381185
p1901
aS' of course it was going to be linked, something needs done before they take over the world !!'
p1902
aI0
aa(lp1903
V553513642478813184
p1904
aS' wow and you were so sure there was no connection despite having no info. Tell us the news not your view as news. Numpties.'
p1905
aI0
aa(lp1906
V553514819085946881
p1907
aS" I'd rather wait for official confirmation than your scaremongering speculative social media sourcing news. givefacts unnamed"
p1908
aI0
aa(lp1909
V553516393791238145
p1910
aS" at least it hasn't been forgotten... there's been so little coverage, no mention of finding the shooter that escaped!!"
p1911
aI0
aaa(lp1912
(lp1913
V553506608203169792
p1914
aS'Map shows industrial estate where 2 CharlieHebdo suspects are holed up, surrounded by police  '
p1915
aI0
aa(lp1916
V553507679621378049
p1917
aS"  you're in the news again bro"
p1918
aI0
aa(lp1919
V553507208382930944
p1920
aS' bet there in aldi....nobody can resist the bargains in there '
p1921
aI0
aa(lp1922
V553507538860126211
p1923
aS' by any chance does that printing business actually print the Charlie Hebdo newspaper?'
p1924
aI0
aa(lp1925
V553508411178885121
p1926
aS" Here is an so called Secular Indian Parliamentarian's thought.This party has ruled us for 60 years "
p1927
aI0
aa(lp1928
V553509397063041024
p1929
aS' '
p1930
aI0
aa(lp1931
V553507700546367488
p1932
aS'  follow through here'
p1933
aI0
aa(lp1934
V553507495604678658
p1935
aS" You telling me that in a 40km motorway car chase involving a Peugeot 206 they couldn't be taken out?? Pathetic!!!"
p1936
aI0
aa(lp1937
V553522189337890816
p1938
aS"  coppers don't want to kill them."
p1939
aI7
aa(lp1940
V553508438224142336
p1941
aS' Stick a scaffolding pole up their arses and set it in the ground with a camera on their faces to live-stream them slowly dying'
p1942
aI0
aa(lp1943
V553508241981046784
p1944
aS" suggest you change 'martyr' themselves to 'kill themselves' in your TV news text - don't dignify them"
p1945
aI0
aa(lp1946
V553512763906334722
p1947
aS'  well said! The media can help here.'
p1948
aI10
aa(lp1949
V553526618720075776
p1950
aS'  well said.'
p1951
aI10
aa(lp1952
V553508636505673729
p1953
aS' Prepared to die as martyrs.?  Wat a joke !  They are murdering heathens. They have no financial Jihadist support either. Odd !'
p1954
aI0
aa(lp1955
V553507613900820481
p1956
aS" there's an aldi fucking everywhere these days"
p1957
aI0
aa(lp1958
V553508114436476929
p1959
aS"  Better than Tesco's though?"
p1960
aI14
aa(lp1961
V553507375211364352
p1962
aS" least they're near an Aldi"
p1963
aI0
aa(lp1964
V553507937121878016
p1965
aS' you catch them I will clean them in the name of Jesus!'
p1966
aI0
aa(lp1967
V553507283108655104
p1968
aS' now put it on live tv news!!!!'
p1969
aI0
aa(lp1970
V553507222324801536
p1971
aS' why aint the reporyers walking accross the grass to get closer instead od tryna get past the police?'
p1972
aI0
aa(lp1973
V553508576422285312
p1974
aS" Don't deny them their just reward, expadite dispatch ....., there's a small hitch though .. "
p1975
aI0
aa(lp1976
V553507344932294657
p1977
ag738
aI0
aa(lp1978
V553507133464248320
p1979
aS' yes!!!!'
p1980
aI0
aaa(lp1981
(lp1982
V553586860334010368
p1983
aS'CharlieHebdo killers shot dead by police'
p1984
aI0
aa(lp1985
V553587067712995328
p1986
aS' best News possible all things considered'
p1987
aI0
aa(lp1988
V553587039598571523
p1989
aS' best news I have heard, Kay you are doing an amazing job thank you'
p1990
aI0
aa(lp1991
V553587361398132736
p1992
aS' Thinking of the hostages. To hell with the terrorists, they should burn on the street, absolute scum.'
p1993
aI0
aa(lp1994
V553587398169591809
p1995
aS' Good News at last Evil Pigs !!!!'
p1996
aI0
aa(lp1997
V553587620006346752
p1998
aS' Allegedly?'
p1999
aI0
aa(lp2000
V553586932727693312
p2001
aS' Great news! '
p2002
aI0
aa(lp2003
V553587407980077057
p2004
aS' Just practice for what coming Im afraid Europe is heading for a war'
p2005
aI0
aa(lp2006
V553587040886206466
p2007
aS' No confirmation yet, but hopefully good news'
p2008
aI0
aa(lp2009
V553587445921759232
p2010
aS' great news'
p2011
aI0
aa(lp2012
V553587132045213696
p2013
aS' Good - 2 less to worry about. Hope the Hostages are all OK!'
p2014
aI0
aa(lp2015
V553586988419649536
p2016
aS' they got what they wanted :( but perhaps for the best'
p2017
aI0
aa(lp2018
V553587188500529152
p2019
aS'  great work gsg9 and s/ forces teams.'
p2020
aI0
aa(lp2021
V553587000578932737
p2022
aS' rot in hell.....'
p2023
aI0
aa(lp2024
V553587150428856320
p2025
aS'  Killers? No trial? Can you please provide the evidence that these people were involved in CharlieHebdo'
p2026
aI0
aa(lp2027
V553587214987558912
p2028
aS' you the fastest for breaking news...'
p2029
aI0
aa(lp2030
V553587034762534913
p2031
aS' hurrah, hell awaits '
p2032
aI0
aa(lp2033
V553586964805713920
p2034
aS' best news for days. Goodbye scumbags.'
p2035
aI0
aa(lp2036
V553587467409162240
p2037
aS' great news great reporting Kay one of the best in the business'
p2038
aI0
aa(lp2039
V553587298215133185
p2040
aS' what about the hostage hopefully still alive.'
p2041
aI0
aaa(lp2042
(lp2043
V553548567420628992
p2044
aS'AFP reports there are 2 dead, and 5 hostages being held in the Kosher store in Eastern Paris; separate incident to charlie hebdo shooters.'
p2045
aI0
aa(lp2046
V553559162018611201
p2047
aS'  It is a separate incident but the same terrorist cell?'
p2048
aI0
aa(lp2049
V553560292635189248
p2050
aS"  That's what the police are saying. I meant 'separate' as in different guys to the ones that did Charlie Hebdo attack."
p2051
aI1
aa(lp2052
V553561410920521729
p2053
aS' Thank you, Shiraz. I understand. What do you each think about all this? What is your reaction? '
p2054
aI2
aa(lp2055
V553562623200210944
p2056
aS" I think we don't have enough facts about the big picture right now (AQAP/ISIS etc), we'll need to wait and see  "
p2057
aI3
aa(lp2058
V553565149790224387
p2059
aS'  ok. I would like to hear your reactions, your personal thoughts, once you have had time to process these events.'
p2060
aI4
aa(lp2061
V553554289835376643
p2062
aS'  Officials have apparently confirmed that the deli is linked to CharlieHebdo &amp; killing of officer.'
p2063
aI0
aa(lp2064
V553552395704082432
p2065
aS'  what a shocker..'
p2066
aI0
aa(lp2067
V553552625724301314
p2068
aS'  Yes there is a link. It was confirmed officially today.'
p2069
aI0
aa(lp2070
V553559527216656385
p2071
aS'  Are moderate Muslims protesting these acts of murder and violence?'
p2072
aI0
aa(lp2073
V553552287889494017
p2074
aS'  Police have just confirmed the connection on '
p2075
aI0
aa(lp2076
V553553255255781376
p2077
aS' so what happen to the Charlie hebbdo suspects man news coverage is so shifty in this story'
p2078
aI0
aa(lp2079
V553549149787140096
p2080
aS"  Not so much separated. There're links between them."
p2081
aI0
aa(lp2082
V553550408346779648
p2083
aS"  meant it in the sense that it's different person/people. Links between them unclear at the moment, lots of rumours."
p2084
aI12
aa(lp2085
V553551840428949504
p2086
aS"  A lot of shifting sands in the coverage right now. We'll know soon enough."
p2087
aI13
aa(lp2088
V553552036915335169
p2089
aS'  Speaking of '
p2090
aI14
aa(lp2091
V553553247953514496
p2092
aS'   Yes lots of mixed info coming out. Anyone else here about potential 08 prison connection btwn planners?'
p2093
aI15
aa(lp2094
V553553754424115200
p2095
aS'   Previous connections about plot to freed a terrorist involved in 1995 Paris attack. Otherwise not yet.'
p2096
aI16
aa(lp2097
V553554620229115905
p2098
aS" Thanks 4 the clarification. Many ideas being floated by the media right now. Wish they wouldn't do this.  "
p2099
aI17
aa(lp2100
V553555066754695168
p2101
aS'   Honestly, we need to wait official statement and investigations. By now, we all talk about rumors. :)'
p2102
aI18
aa(lp2103
V553555725084270593
p2104
aS' Agreed. As we say here in the States, "hold your horses". Lol!  '
p2105
aI19
aa(lp2106
V553552100417110017
p2107
aS'  Absolutly right.'
p2108
aI14
aaa(lp2109
(lp2110
V553575232867672064
p2111
aS'MORE: Official: gunman holding at least five hostages in Paris market has threatened to kill them if police approach: '
p2112
aI0
aa(lp2113
V553582539034464256
p2114
aS'\nThis is unbelievable!!! Complete failure of intelligence and security agencies!\nDid France become too liberal with the terrorists?'
p2115
aI0
aa(lp2116
V553576578933075968
p2117
aS' Two words....political correctness....'
p2118
aI0
aa(lp2119
V553580837477056514
p2120
aS' Official: gunman holding at least 5 hostages in Paris market has threatened to kill them if police approach: '
p2121
aI0
aa(lp2122
V553578126320861184
p2123
aS' Sorry but does people probably will be dead by the end of the day as well as the Killers.'
p2124
aI0
aa(lp2125
V553575800122118144
p2126
aS' Locate more photograph here! '
p2127
aI0
aa(lp2128
V553578353349758976
p2129
aS' chicken finally came home too roost... NATO.. started this in Afganistan....'
p2130
aI0
aa(lp2131
V553579370468474880
p2132
aS' NATO is financing terror in India... thru pakistan.... a dose of their own medicine'
p2133
aI6
aa(lp2134
V553583385005006850
p2135
aS' "JE SUIS CHARLES" Wonder about the limits and rights ... destruction and death. Or is that blood man should drink to quench your maldad.'
p2136
aI0
aaa(lp2137
(lp2138
V552984502063337472
p2139
aS'UPDATE Three men including two brothers identified in France newspaper attack: source  JeSuisCharlie CharlieHebdo'
p2140
aI0
aa(lp2141
V553091815218237440
p2142
aS' Go to hell CharlieHebdo'
p2143
aI0
aa(lp2144
V552989544589430784
p2145
aS' UPDATE Three men including two brothers identified in France newspaper attack: source  CharlieHebdo'
p2146
aI0
aaa(lp2147
(lp2148
V553221600955621376
p2149
aS"Clarissa, 27 years old, police trainee of Montrouge Police in France. Victim of this morning's attack. via  "
p2150
aI0
aa(lp2151
V553262052899164161
p2152
aS'  RIP Clarissa'
p2153
aI0
aa(lp2154
V553228413922967552
p2155
aS'  RIP'
p2156
aI0
aaa(lp2157
(lp2158
V553544694765215745
p2159
aS"French police publishes photos of suspect in yesterday's Montrouge shooting. Maybe the same persons in Kosher market "
p2160
aI0
aa(lp2161
V553545342055354368
p2162
aS'MT  French police publish photos of suspect in Montrouge shooting. Maybe the same people in Kosher market '
p2163
aI0
aa(lp2164
V553546903842222080
p2165
aS'  faces of evil.'
p2166
aI0
aa(lp2167
V553547771127812096
p2168
aS'AlQaedaYemen\nCharlieHebdo connexion; policewoman; market\n Police: Suspects Thurs Montrouge shooting\n'
p2169
aI0
aaa(lp2170
(lp2171
V552848620375261184
p2172
aS'Witnesses say the Charlie Hebdo gunmen identified themselves as members of al-Qaida:  '
p2173
aI0
aa(lp2174
V552848736897216513
p2175
aS' Who funded/armed/trained gunmen?   Jeffrey Epstein also in CFR+Trilateral Commission JeSuisCharlie'
p2176
aI0
aa(lp2177
V552857418062127104
p2178
aS' Duh, Ya think?'
p2179
aI0
aa(lp2180
V552848904426098689
p2181
aS' Cant be al-Qaida the President told us they are in retreat'
p2182
aI0
aa(lp2183
V552849973470314496
p2184
aS' " gunmen confess they didn\'t get  \'s satire " '
p2185
aI0
aa(lp2186
V552848723001475073
p2187
aS' I strongly condemn this terrorist attack as a Turkish Muslim.Terrorists Cannot represent Islam notinmyname'
p2188
aI0
aa(lp2189
V552850544797446144
p2190
aS' Witnesses -Charlie Hebdo gunmen identified themselves as members of al-Qaida:" If true, terrorist groups\' competing and escalating?'
p2191
aI0
aa(lp2192
V552852606234947584
p2193
aS'  the outbidding scenario as talked about by   '
p2194
aI6
aa(lp2195
V552850359266197504
p2196
aS'Hhmmmm *ambil lup*  Witnesses say the Charlie Hebdo gunmen identified themselves as members of al-Qaida: '
p2197
aI0
aa(lp2198
V552852018864218112
p2199
aS' \nAlluh akbar , why did they make a funny on our prophet.'
p2200
aI0
aa(lp2201
V552850999443202049
p2202
aS'  '
p2203
aI0
aa(lp2204
V552874999522934784
p2205
aS'.  ...witnesses may have but President never will not will he utter islam jihad or muslim in association with this! '
p2206
aI0
aa(lp2207
V552851266754596865
p2208
aS"  Identified themselves ? You having a laugh, so how come they didn't get shot too ? :/ France"
p2209
aI0
aa(lp2210
V552858826043424768
p2211
aS'RT  Witnesses say the Charlie Hebdo gunmen identified themselves as members of al-Qaida  '
p2212
aI0
aa(lp2213
V552853646744899584
p2214
aS"Trying to one-up ISIS? MT  Witnesses say Charlie Hebdo gunmen self-ID'd as al-Qaida:  "
p2215
aI0
aaa(lp2216
(lp2217
V553486439129038848
p2218
aS'BREAKING: French police tell AP suspects in CharlieHebdo attack have taken a hostage northeast of Paris.'
p2219
aI0
aa(lp2220
V553487881113989120
p2221
aS' JeSuisCharlie\nUnsucessfulFrancePolice\nDammartinEnGoele \nCharlieHebdo \nincompetentFrancePolice\nparisburning 20 Dead,2 injured'
p2222
aI0
aa(lp2223
V553487052776693761
p2224
aS'  JeSuisCharlie\nUnsucessfulFrancePolice\nDammartinEnGoele \nCharlieHebdo \nReuters \nincompetentFrancePolice\nparisisburning'
p2225
aI0
aa(lp2226
V553486913970397186
p2227
aS' \nWhy did they even exist? Everyone seem to know all about their dirt!'
p2228
aI0
aa(lp2229
V553543395717550080
p2230
aS'  the terrorists need empathy send them to Harvard University'
p2231
aI0
aa(lp2232
V553486598328041472
p2233
aS' French Police have closed Charles de Gaulle airport flights being diverted airport is near Dammartin-en-Goel '
p2234
aI0
aa(lp2235
V553487150550089728
p2236
aS' BREAKING: French police tell AP suspects in CharlieHebdo attack have taken a hostage northeast of Paris. oh dear.'
p2237
aI0
aa(lp2238
V553487414409564160
p2239
aS" you are apparently not paying attention.  Sky News is showing GIGN Aircraft in the sky, it's safe to say there is a hostage..."
p2240
aI0
aa(lp2241
V553486812787007488
p2242
aS" These guys aren't getting away from the GIGN."
p2243
aI0
aaa(lp2244
(lp2245
V553544252563935234
p2246
aS'BREAKING: At least 2 killed in Paris hostage situation via  '
p2247
aI0
aa(lp2248
V553544746430652416
p2249
aS'  Oh my god..those terrorists are awful.'
p2250
aI0
aa(lp2251
V553545546947104768
p2252
aS'  "AlQuieda is on the run" "ISIS is a JV team". Oh wait......'
p2253
aI0
aa(lp2254
V553560398365212672
p2255
aS'okiee time for me to leave paris now RT  BREAKING: At least 2 killed in Paris hostage situation via  '
p2256
aI0
aa(lp2257
V553544735131201536
p2258
aS'" BREAKING: At least 2 killed in Paris hostage situation via   '
p2259
aI0
aa(lp2260
V553557332261490688
p2261
aS' BREAKING: At least 2 killed in Paris hostage situation via   when will the craziness end? '
p2262
aI0
aa(lp2263
V553550704888279041
p2264
aS"  Now if only the citizens had a way to protect themselves. Like...oh I don't know...a weapon? Victor or Victim!"
p2265
aI0
aa(lp2266
V553544568130768897
p2267
aS'  awesome!!!'
p2268
aI0
aa(lp2269
V553545985624784896
p2270
aS'Cc     BREAKING: At least 2 killed in Paris hostage situation via  '
p2271
aI0
aa(lp2272
V553546195772407808
p2273
aS' BREAKING: At least 2 killed in Paris hostage situation via   Peace strikes again...'
p2274
aI0
aa(lp2275
V553549302187192320
p2276
aS'  '
p2277
aI0
aa(lp2278
V553555098157060097
p2279
aS'   Radicalism must NOT be tolerated. Deport or Shoot, before they shoot you. NO Trials Or Justice,  for they do NOT know it.'
p2280
aI0
aa(lp2281
V553545099905601536
p2282
aS'RT  BREAKING: At least 2 killed in Paris hostage situation via  '
p2283
aI0
aa(lp2284
V554305263046754305
p2285
aS'  Keep Rising up against them paris. godspeed protection '
p2286
aI0
aa(lp2287
V553550518531141632
p2288
aS' Cowards!!!'
p2289
aI0
aaa(lp2290
(lp2291
V552834961762709505
p2292
aS'Paris Manhunt: 3 CharlieHebdo attackers with AK-47 rifles &amp; reportedly rocket-propelled grenade still at large '
p2293
aI0
aa(lp2294
V552836509074591748
p2295
aS' so aljazeera report on rocket launcher then edit link'
p2296
aI0
aa(lp2297
V552836375670562816
p2298
aS' \nIslamIsPeace '
p2299
aI0
aa(lp2300
V552835091714416640
p2301
aS' now that is better grammar'
p2302
aI0
aa(lp2303
V552835533009727488
p2304
aS' Means RPG.'
p2305
aI0
aa(lp2306
V552837270953529345
p2307
aS' islam is a barbaric heinous "religion" I can\'t recall 1 good thing it has contributed to anyone. It\'s a violent cult, nothing more.'
p2308
aI0
aa(lp2309
V552838224981553153
p2310
aS'    Their hiding at MSNBC  or CNN office'
p2311
aI0
aa(lp2312
V552835146844737537
p2313
aS' Crazy Jews! sarcasm'
p2314
aI0
aa(lp2315
V552849852338831360
p2316
aS' France is paying a big price for been a puppet of Americans'
p2317
aI0
aa(lp2318
V552840744210161664
p2319
aS'Scary!  3 CharlieHebdo attackers with AK-47 rifles &amp; reportedly rocket-propelled grenade still at large '
p2320
aI0
aa(lp2321
V552841806245679104
p2322
aS" Mam, Can I get DM from you with  Mam's contact number for a telephonic reaction on News 24. Would really appreciate"
p2323
aI9
aa(lp2324
V552844369649098754
p2325
aS" I don't have it.. why don't you try her here "
p2326
aI10
aa(lp2327
V552844745647460352
p2328
aS' Thank you for the reply mam. Really appreciate. I have tweeted  mam also.'
p2329
aI11
aa(lp2330
V552860931026604032
p2331
aS' the ease with these weapons are brandished is a threatening scenario'
p2332
aI9
aa(lp2333
V552845561896771585
p2334
aS'.  come on! Surely not as scary as RSS Hindus at large with laathis, right?'
p2335
aI9
aa(lp2336
V552836259433828352
p2337
aS' I hope the French get all "Foreign Legion" on their ass and put the crosshairs where they should be....'
p2338
aI0
aa(lp2339
V552843614389559296
p2340
aS' The GIGN got there work cut out today lol'
p2341
aI0
aaa(lp2342
(lp2343
V552806757672964097
p2344
aS'UPDATE: 12 now confirmed dead in CharlieHebdo attack in Paris,  is reporting. Story:  (AP) '
p2345
aI0
aa(lp2346
V552823438457311232
p2347
aS' \n US Citizens!!\n2015:Fbruary 5. health insurance deadline\nObamaCare Register and\nGo to the hospital to get sick,your health!!'
p2348
aI0
aa(lp2349
V552810796884189184
p2350
aS'  in deaths, there are 4 of more french illustrators! cabu, wolinsky, charb and tignous'
p2351
aI0
aa(lp2352
V552810800164139008
p2353
aS'   seb746138 SEE that -&gt; '
p2354
aI2
aa(lp2355
V552819464711184384
p2356
aS'  :( justice'
p2357
aI0
aa(lp2358
V552812110678196224
p2359
aS'   Very sad.\n\nAmazing QTablet\n'
p2360
aI0
aa(lp2361
V552808137737383936
p2362
aS'   And Francistan will just roll over and do nothing. French Jews, get out while you can!'
p2363
aI0
aa(lp2364
V552812322075729920
p2365
aS'   This is not about political correctness. These medieval assholes want to destroy fee speech &amp; western values: War.'
p2366
aI0
aa(lp2367
V552825292184514561
p2368
aS' \n* US Citizens!!\n2015:Fbruary 5. health insurance deadline\nObamaCare Register and\nGo to the hospital to get sick,your health!!'
p2369
aI0
aa(lp2370
V552808047643729920
p2371
aS' 12 now confirmed dead in CharlieHebdo attack in Paris,  is reporting:  (AP) '
p2372
aI0
aa(lp2373
V552905510039465985
p2374
aS'  Why Muslims killed Non-muslims ? Why Muslims are not afraid of Mighty God? Why god of muslims is cruel and say Kill Infidel?'
p2375
aI0
aa(lp2376
V552807311191048193
p2377
aS' the drawer Cabu was killed during the attack'
p2378
aI0
aa(lp2379
V552807298192510977
p2380
aS' 12 now confirmed dead in CharlieHebdo attack in Paris,  is reporting. Story:  (AP) Islam as usual.'
p2381
aI0
aaa(lp2382
(lp2383
V553474188259102720
p2384
aS'BREAKING: Shots fired, hostages taken in manhunt for CharlieHebdo attackers, police say  '
p2385
aI0
aa(lp2386
V553482152743288833
p2387
aS' Hi, is this your image and if so, can we use on  pls? we will give a photo credit. Thanks'
p2388
aI0
aa(lp2389
V553506819294121985
p2390
aS' they die in slut pink ass those white French, they disgusting why they slut pig die,i myself became more poor inside Paris no phone'
p2391
aI0
aa(lp2392
V553508132459393024
p2393
aS' These thugs r so cowardly they attack a mag now HIDE behind innocent people'
p2394
aI0
aa(lp2395
V553488128364007424
p2396
aS'  Your article says the suspects, but then states it is a fact that they were the attackers. justsaying'
p2397
aI0
aa(lp2398
V553478423411441664
p2399
aS"  They're a pretty tame looking group compared to our militarized police.  CharlieHebdo"
p2400
aI0
aa(lp2401
V553479692133470209
p2402
aS'  '
p2403
aI0
aa(lp2404
V553536816238710784
p2405
aS" they were well known by the French/ why didn't they do anything??? then"
p2406
aI0
aa(lp2407
V553475360936165376
p2408
aS'MT  BREAKING: Shots fired, hostages taken in hunt for CharlieHebdo attackers   news8'
p2409
aI0
aaa(lp2410
(lp2411
V552996335319007233
p2412
aS'RT  R.I.P. Ahmed Merabet, a French Muslim Cop, first victim of CharlieHebdo attack '
p2413
aI0
aa(lp2414
V552996575396765696
p2415
aS'  Someone should send that to Chris Matthews who acted as if all Muslims in France were terrorists'
p2416
aI0
aa(lp2417
V553005429492445184
p2418
aS"    I'm not buying the bullshit that there's good Muslims. The Islamic religion is fucking  evil."
p2419
aI0
aa(lp2420
V553023430443167746
p2421
aS'.   thank you for making it easy for me to spot you and block you. Bye'
p2422
aI2
aa(lp2423
V553008182050947072
p2424
aS'   Islamaphobe'
p2425
aI2
aa(lp2426
V553008434627362816
p2427
aS"    not really, just pissed off. I'm against all religion."
p2428
aI4
aa(lp2429
V553008784692756480
p2430
aS"   I'm not a religious person either, but u slammed 1 billion ppl. All fanaticism is evil."
p2431
aI5
aa(lp2432
V553009507186393088
p2433
aS'   I slammed Islam not the people. They need reformation and the lack of movement shows no interest.'
p2434
aI6
aa(lp2435
V553009820409024512
p2436
aS"   I'll give you that."
p2437
aI7
aa(lp2438
V553010394327834625
p2439
aS'    Muslims have been given opportunity to reform and they refuse to do it.Where are the 1 billion.'
p2440
aI8
aa(lp2441
V553010804069781505
p2442
aS'   worldwide'
p2443
aI9
aa(lp2444
V553011245737992193
p2445
aS"    Yeah, chopping heads off, and if they ain't doing the chopping they're cheering."
p2446
aI10
aa(lp2447
V553023915963191296
p2448
aS'   Seriously, "they\'ve been given a chance to reform" Most idiotic bullshit.glad I blocked this joke.'
p2449
aI9
aa(lp2450
V553042679412436992
p2451
aS'.   JeSuisMusselman JeSuisCharlie'
p2452
aI0
aa(lp2453
V552997646076739585
p2454
aS'  His filmed death, was an barbaric act of terror!'
p2455
aI0
aa(lp2456
V553004470440058881
p2457
aS'   R.I.P.'
p2458
aI0
aaa(lp2459
(lp2460
V553588178687655936
p2461
aS'Reports: CharlieHebdo suspects killed '
p2462
aI0
aa(lp2463
V553588570368532480
p2464
aS' great news! No trial, no taxpayer money spent to support them.'
p2465
aI0
aa(lp2466
V553588869409832960
p2467
aS" damnit!!! That's what those fuckers wanted!! Now they will be hailed as martyrs...."
p2468
aI0
aa(lp2469
V553588472330452992
p2470
aS' Reports: CharlieHebdo suspects killed  superb simultaneous response by the French tactics unit.'
p2471
aI0
aa(lp2472
V553589955029512192
p2473
aS" That's a good start"
p2474
aI0
aa(lp2475
V553591897458237440
p2476
aS' Chance lost to bring them to big trial and exposure to the world. A pitty they were not caught alive! Now they are martirs!'
p2477
aI0
aa(lp2478
V553589124125323264
p2479
aS' good.'
p2480
aI0
aa(lp2481
V553589038196981760
p2482
aS' Can you confirm the reports that those suspects were killed by French police?'
p2483
aI0
aa(lp2484
V553588358044483584
p2485
aS'Damn, this is like a movie RT  Reports: CharlieHebdo suspects killed '
p2486
aI0
aa(lp2487
V553590627343302657
p2488
aS" They got Netanyahu's Mossad agents? GOOD. Don't fuck with the French -- they invented the guillotine!"
p2489
aI0
aa(lp2490
V553593015416008704
p2491
aS' Some good news!'
p2492
aI0
aaa(lp2493
(lp2494
V553461741917863936
p2495
aS'Rural region of northern France searched in hunt for CharlieHebdo gunmen - latest updates  '
p2496
aI0
aa(lp2497
V553467937575952384
p2498
aS' JeSuisCharlie NO. We are witness on how the world have let terrorist walk on our streets. Why they were out of Jail? The Media'
p2499
aI0
aa(lp2500
V553471188530249730
p2501
aS' JeSuisAhmed JeNeSuisPasCharlie'
p2502
aI0
aa(lp2503
V553464272043638785
p2504
aS'  '
p2505
aI0
aa(lp2506
V553503688946225152
p2507
aS' JeSuisAhmed the Muslim policemen who died protecting the Charlie who ridiculed his faith '
p2508
aI0
aa(lp2509
V553462405800288256
p2510
aS'  FUCK OFF DONT SPREAD THIS ILL PERSON AS A HERO !'
p2511
aI0
aa(lp2512
V554412391279374336
p2513
ag738
aI0
aa(lp2514
V554282491549196289
p2515
ag738
aI0
aa(lp2516
V553469592488931328
p2517
aS' My support. JeSuisCharlie '
p2518
aI0
aa(lp2519
V553462961365581824
p2520
aS" superb! raping an unsuspecting child with a message it can't make a choice about is always a superb photo op. thanks, BBC"
p2521
aI0
aa(lp2522
V553504117230800896
p2523
aS'  a Fuck head u are'
p2524
aI9
aa(lp2525
V553514398871216128
p2526
aS'  it is well meaning but clueless people like you such imagery targets'
p2527
aI10
aa(lp2528
V553535342049902592
p2529
ag738
aI0
aa(lp2530
V553463489209978880
p2531
aS' \nStopKillingInnocentPeople\nFreePalestine\nfreeBurma\nfreeSyria '
p2532
aI0
aa(lp2533
V553463231386497024
p2534
aS' did shooting not happen in paris'
p2535
aI0
aa(lp2536
V553496340580556800
p2537
ag738
aI0
aaa(lp2538
(lp2539
V553476880339599360
p2540
aS'DEVELOPING: Police pursuing CharlieHebdo shooting suspects, helicopters deployed - LIVE FEED:  '
p2541
aI0
aa(lp2542
V555631356286234624
p2543
aS" found similar by  here:~  entitled: 'Police raid cannabis crops'"
p2544
aI0
aaa(lp2545
(lp2546
V552814494381256704
p2547
aS"UPDATE: CharlieHebdo's editor-in-chief was killed in attack - Magazine's lawyer "
p2548
aI0
aa(lp2549
V552816523593916416
p2550
aS'  "Bigotry: The Dark Danger" '
p2551
aI0
aa(lp2552
V552815415949557760
p2553
aS' May he rest in peace.'
p2554
aI0
aa(lp2555
V552814812363620352
p2556
aS" UPDATE: CharlieHebdo's editor-in-chief was killed in attack - Magazine's lawyer "
p2557
aI0
aa(lp2558
V552814927829016577
p2559
aS' \n  hi,can u like here ,plz \nlike picture \n\n\nThanx'
p2560
aI0
aa(lp2561
V552817606194135041
p2562
aS" UPDATE: CharlieHebdo's editor-in-chief was killed in attack - Magazine's lawyer "
p2563
aI0
aa(lp2564
V552821574298918913
p2565
aS'  Looks like Rick Mercer'
p2566
aI0
aa(lp2567
V552824657028874241
p2568
ag738
aI0
aa(lp2569
V552818286803443713
p2570
aS'  RIP French dhimmi govt is doing everything to protect muslims. Dont worry, more innocents will follow this brave man!'
p2571
aI0
aa(lp2572
V552821795628531715
p2573
aS" UPDATE: CharlieHebdo's editor-in-chief was killed in attack - Magazine's lawyer  \n\nwell.."
p2574
aI0
aa(lp2575
V552816420074291200
p2576
aS" URG: CharlieHebdo's editor-in-chief was killed in attack-Magazine's lawyer  justifica esto, NADA!"
p2577
aI0
aaa(lp2578
(lp2579
V553587672137334785
p2580
aS'AFP: suspected CharlieHebdo gunmen have been killed'
p2581
aI0
aa(lp2582
V553592680866152449
p2583
aS'  go on shoot em again just to make sure'
p2584
aI0
aa(lp2585
V553595514739253248
p2586
aS'  sod watching them and then them escaping being watched. If they support terrorism. .send them out of our country'
p2587
aI1
aa(lp2588
V553592819622092800
p2589
aS'  stick em full of pencils.'
p2590
aI1
aa(lp2591
V553593105233248257
p2592
aS'  and shove a copy of CharlieHebdo up their ass'
p2593
aI3
aa(lp2594
V553593746865258497
p2595
aS'  then send them to the countries the supported as a sign. We are not backing down'
p2596
aI4
aa(lp2597
V553594432743018496
p2598
aS'  that\'s a good idea, just attach a note saying " I think this is your shit have it back"'
p2599
aI5
aa(lp2600
V553595330009518080
p2601
aS' wonder if  get the impression we are sick of these extremists and how the government just let them in'
p2602
aI6
aa(lp2603
V553596198956056576
p2604
aS"  it could never happen here, we don't have a paper with enough balls to publish anything that offends Muslims notPC"
p2605
aI7
aa(lp2606
V553597910504714240
p2607
aS'  true. Perhaps they should all grow some NoHope'
p2608
aI8
aa(lp2609
V553589804492148736
p2610
aS' good'
p2611
aI0
aa(lp2612
V553589786775412737
p2613
aS' AFP: suspected CharlieHebdo gunmen have been killed'
p2614
aI0
aa(lp2615
V553588931707822080
p2616
aS' AFP: suspected CharlieHebdo gunmen have been killed BANG BANG NIGGA'
p2617
aI0
aa(lp2618
V553590107807428608
p2619
aS' AFP: suspected CharlieHebdo gunmen have been killed yayyyboom'
p2620
aI0
aa(lp2621
V553589615379374080
p2622
aS' Great outcome. All murderers dead. All hostages freed. Great job by French police'
p2623
aI0
aa(lp2624
V553588141576454144
p2625
aS' AFP: suspected CharlieHebdo gunmen have been killed Hoping that this is now the end'
p2626
aI0
aa(lp2627
V553596969978179584
p2628
aS' it will never be the end'
p2629
aI15
aa(lp2630
V553589201347035136
p2631
aS"  like a Bogo',' and done"
p2632
aI0
aa(lp2633
V553587884263874561
p2634
aS' hallelujah, enjoy the 40 virgins'
p2635
aI0
aa(lp2636
V553588033313046528
p2637
aS'Got the bastards! " AFP: suspected CharlieHebdo gunmen have been killed'
p2638
aI0
aa(lp2639
V553588238867517441
p2640
aS' AFP: suspected CharlieHebdo gunmen have been killed vive la France'
p2641
aI0
aa(lp2642
V553588198577025026
p2643
aS' AFP: suspected CharlieHebdo gunmen have been killed &lt;&lt;&lt;Was inevitable'
p2644
aI0
aa(lp2645
V553587974680875008
p2646
aS'  good  thats a start'
p2647
aI0
aaa(lp2648
(lp2649
V553535829017370625
p2650
aS'BREAKING - At least five hostages in Paris kosher supermarket: (AFP)  Vincennes '
p2651
aI0
aa(lp2652
V553551642369753088
p2653
aS' is this all part of a plan .. a spread of attacks by different associates  to cause maximum confusion ..playing hostages . Max PR?'
p2654
aI0
aa(lp2655
V553536495433580545
p2656
aS'RT  BREAKING - At least five hostages in Paris kosher supermarket: (AFP)  Vincennes '
p2657
aI0
aa(lp2658
V553541692243316737
p2659
aS"  It's time 4 West 2 make formal declaration of war vs Islamic Terrorists but is there country with courage 2 do so?"
p2660
aI0
aa(lp2661
V553536361786277888
p2662
aS' BREAKING - At least five hostages in Paris kosher supermarket: (AFP)  Vincennes '
p2663
aI0
aaa(lp2664
(lp2665
V553579224402235393
p2666
aS'Hostage-taker at Paris store demands release of KouachiBrothers, police union spokesman says.  '
p2667
aI0
aa(lp2668
V553582297551998976
p2669
aS" say thank's usa"
p2670
aI0
aa(lp2671
V553579820563849218
p2672
aS' You know, a non-violent way to end this situation...'
p2673
aI0
aa(lp2674
V553580255647399936
p2675
aS' Those are Dead people already thats part of there standoff more media to show up.So the World to see.'
p2676
aI0
aa(lp2677
V553580063586000896
p2678
aS" I don't think he understands, kidnappers surrender or get shot, murderers surrender or get shot.  It's quite simple ! JeSuisCharlie"
p2679
aI0
aa(lp2680
V553585746754682880
p2681
aS'Hostage-taker at Paris store demands release of Kouachis police union spoke says.   via '
p2682
aI0
aa(lp2683
V553579500139589632
p2684
aS' these mother fucker do not represent Muslims'
p2685
aI0
aa(lp2686
V553580571985580032
p2687
aS'. ITS A KOSHER JEWISH SUPERMARKET. THEY CHOSE IT FOR A REASON. YOU CONVENIENTLY LEFT THAT OUT JeSuisJuif'
p2688
aI0
aa(lp2689
V553585548204720128
p2690
aS' relax.... Every other work out of cuomo and coopers mouth was kosher'
p2691
aI7
aa(lp2692
V553587353437356032
p2693
aS'. -SO SAVE ME THE FUCKING LECTURE, AND WHEN MY FELLOW TRIBE MEMBERS ARE BEING HELD HOSTAGE, DONT DARE TELL ME TO CALM DOWN.'
p2694
aI8
aa(lp2695
V553587865351753730
p2696
aS'  And the hostages at the kosher market have been freed. Happy for you David.'
p2697
aI9
aa(lp2698
V553587585126117376
p2699
aS'  Too late. The Charlie Hebdo terrorists are dead.'
p2700
aI9
aa(lp2701
V553586766419329024
p2702
aS'. AND YET ITS NOT ON/IN THE TWEET/HEADLINE. AS USUAL. &amp; DONT FUCKING TELL ME TO RELAX.\nTHIS IS THE SAME NETWORK THAT REPORTED THE-'
p2703
aI8
aa(lp2704
V553587243085209602
p2705
aS'  agreed, its convenient they forgot to mention that detail.'
p2706
aI12
aa(lp2707
V553587104656404481
p2708
aS'. -Hamas terrorist SYNAGOGUE MASSACRE AS "ISRAELI FORCES SHOOT 2 ARABS IN MOSQUE".\nI\'VE GOT A GOOD MEMORY &amp; IT WASNT LONG AGO-'
p2709
aI8
aa(lp2710
V553580917898231808
p2711
aS'  Yup, they buried its kosher deliberately'
p2712
aI7
aa(lp2713
V553585472145211392
p2714
aS'   ILLSHOPWITHJEW'
p2715
aI15
aa(lp2716
V553588028925804544
p2717
aS' . ITS A KOSHER JEWISH SUPERMARKET. THEY CHOSE IT FOR A REASON. YOU CONVENIENTLY LEFT THAT OUT JeSuisJuif &lt;too true!'
p2718
aI7
aa(lp2719
V553588188648714240
p2720
aS'  Coward News Network'
p2721
aI7
aa(lp2722
V553599279097733120
p2723
aS'   YOU LEFT OUT INTERNATIONAL!'
p2724
aI18
aa(lp2725
V553579540602429440
p2726
aS" Don't they have those machines that shoot loud focused waves at people to get them to submit?"
p2727
aI0
aa(lp2728
V553584047189159937
p2729
aS'  just the Japanese whalers to keep paul Watson away'
p2730
aI20
aa(lp2731
V553585181517701120
p2732
aS"  Use an LRAD on the hostage taker, &amp; if the hostages feel the affect too, they won't die like the murderer. Bring him in"
p2733
aI21
aa(lp2734
V553580075082203136
p2735
aS' hope France has sharpshooters'
p2736
aI0
aa(lp2737
V553580540662910976
p2738
aS' ask this coverage reminds me of the song "villain" by the verve pipe.'
p2739
aI0
aaa(lp2740
(lp2741
V553478289474740224
p2742
aS'BREAKING : 1 dead, several injured in shootout North-East of Paris (French radio  )  CharlieHebdo'
p2743
aI0
aa(lp2744
V553482001651470336
p2745
aS'  US is the ultimate instigator of all Conflicts &amp; Chaos. US arms &amp; funds Terrorists in every Country'
p2746
aI0
aa(lp2747
V553485100932157440
p2748
aS'Siege:  BREAKING : 1 dead, several injured in shootout North-East of Paris ( )  CharlieHebdo'
p2749
aI0
aa(lp2750
V554212158133633025
p2751
aS'   - Bring back the Guillotine for dealing with terrorists.'
p2752
aI0
aa(lp2753
V553481697124052993
p2754
aS'  France will only stop invading other countries&amp;arming &amp; funding of Terrorists if these Terrorists bring Chaos inFrance'
p2755
aI0
aa(lp2756
V553481203886460928
p2757
aS'  Islamic State praise Paris attackers as "heroic jihadists"   via '
p2758
aI0
aa(lp2759
V553481569675911168
p2760
aS'   France will be judged by the measures it takes once the ceremonies r over '
p2761
aI5
aaa(lp2762
(lp2763
V553467311261503488
p2764
aS'Reports of shooting at  Dammartin en Goele on route N2 north east of Paris - French media says car chase under way'
p2765
aI0
aa(lp2766
V553481000379248640
p2767
aS' take them alive so they can suffer'
p2768
aI0
aa(lp2769
V553468547184467969
p2770
aS' Sounds like theirs multiple terrorists acting or the Two hebdo attackers manage to stay step ahead of 80,000 cops one of two'
p2771
aI0
aaa(lp2772
(lp2773
V552783667052167168
p2774
aS'France: 10 people dead after shooting at HQ of satirical weekly newspaper CharlieHebdo, according to witnesses '
p2775
aI0
aa(lp2776
V552792862610694144
p2777
aS'  A French crime of passion or another heathen moslem atrocity?'
p2778
aI0
aa(lp2779
V552785374507175936
p2780
aS"MT  France: 10 dead after shooting at HQ of satirical weekly CharlieHebdo. If Zionists/Jews did this they'd be nuking Israel"
p2781
aI0
aa(lp2782
V552786226546495488
p2783
aS' They who? Stupid and partial opinions like this one only add noise to any debate.'
p2784
aI2
aa(lp2785
V552789345628069888
p2786
aS' Socialists, Antisemites, anti zionists - usual suspects'
p2787
aI3
aa(lp2788
V552943855021330432
p2789
aS' LOL. 5 million Muslims in France, what a disgrace. the french worm president and politicians killed them. tine for croissants now'
p2790
aI0
aaa(lp2791
(lp2792
V552791578893619200
p2793
aS'Eleven dead in shooting at Paris offices of satirical magazine Charlie Hebdo  live updates '
p2794
aI0
aa(lp2795
V552795831599120384
p2796
aS' Eleven dead in shooting at Paris offices of satirical magazine Charlie Hebdo live updates  how horrific!'
p2797
aI0
aa(lp2798
V552793048510648320
p2799
aS' horrible news and a Cowardly attack on the press!'
p2800
aI0
aa(lp2801
V552822387448631296
p2802
aS" it's painful and inhuman to kill innocent people, \nNo religion permits it."
p2803
aI0
aa(lp2804
V552825507340091392
p2805
aS'  Your filthy ISLAM must be eradicated. Liars cut and paste bogus religion. Lying is part of your pond scum faith.'
p2806
aI3
aa(lp2807
V552791675379400705
p2808
aS' I strongly condemn this terrorist attack as a Turkish Muslim.I love my Prophet.But my Prophet rejects terrorism.'
p2809
aI0
aa(lp2810
V552824748879925248
p2811
aS'  Your prophet? Laughable your book is cut and pasted Torah and Christian translation. Scourge of the planet = ISLAM'
p2812
aI5
aa(lp2813
V552794374950887425
p2814
aS' Eleven dead in shooting at Paris offices of satirical magazine Charlie Hebdo  live updates '
p2815
aI0
aa(lp2816
V552808830598262785
p2817
aS' Eleven dead in shooting at Paris offices of satirical magazine Charlie Hebdo  live updates   Prayers'
p2818
aI0
aa(lp2819
V552792030225920000
p2820
aS'  muslims,,this is the magazine that published the Mohamed cartoon a few years ago'
p2821
aI0
aa(lp2822
V552796307627470848
p2823
aS' Shocking news.'
p2824
aI0
aa(lp2825
V552795016725532672
p2826
aS' Eleven dead in shooting at Paris offices of satirical magazine Charlie Hebdo  live updates '
p2827
aI0
aa(lp2828
V552792351413133312
p2829
aS' Eleven dead in shooting at Paris offices of satirical magazine Charlie Hebdo   - just horrific'
p2830
aI0
aa(lp2831
V552818611015131136
p2832
aS' actually 12 dead Charlie Hebdo'
p2833
aI0
aa(lp2834
V552826072237346817
p2835
aS'  France &amp; UK wake up fools Israel deals with ISLAM pond scum every day. You asked for this. Tip of iceberg. More to come.'
p2836
aI13
aa(lp2837
V552796077561094144
p2838
aS' This is their true colour :-('
p2839
aI0
aa(lp2840
V552795888134144001
p2841
aS' disgusting'
p2842
aI0
aa(lp2843
V552797785427558401
p2844
aS' Eleven dead in shooting at Paris offices of satirical magazine Charlie Hebdo  live updates  More tragedy'
p2845
aI0
aa(lp2846
V552810884314443776
p2847
aS'Appalling and so tragic.  11 dead in shooting at Paris offices of satirical magazine Charlie Hebdo '
p2848
aI0
aa(lp2849
V552795898196291584
p2850
aS'Horrific: Eleven dead in shooting at Paris offices of satirical magazine Charlie Hebdo  live updates '
p2851
aI0
aa(lp2852
V552792826216329217
p2853
aS'Shit ... Eleven dead in shooting at Paris offices of satirical magazine Charlie Hebdo  live updates '
p2854
aI0
aaa(lp2855
(lp2856
V553550301886955520
p2857
aS'BREAKING: One person seriously wounded, six taken hostage in incident at kosher supermarket in Paris: police source'
p2858
aI0
aa(lp2859
V553551676700098561
p2860
aS' incident?'
p2861
aI0
aa(lp2862
V553551949745119233
p2863
aS" not in anyway justifying the violence but why the intentionally hurting of others believe? It doesn't make sense."
p2864
aI0
aa(lp2865
V553550971167834113
p2866
aS' 2 confirmed dead in shooting before he took hostages... '
p2867
aI0
aa(lp2868
V553550610675818496
p2869
aS' BREAKING: One person seriously wounded, six taken hostage in incident at kosher supermarket in Paris: police source '
p2870
aI0
aa(lp2871
V553551446164402176
p2872
aS' BREAKING: One person seriously wounded, six taken hostage in incident at kosher supermarket in Paris: police source Mondo Cane!'
p2873
aI0
aa(lp2874
V553550697128796161
p2875
aS' And 2 or 3 people killed. Unconfirmed.'
p2876
aI0
aa(lp2877
V553551887270547459
p2878
aS' Can you clarify - are the six hostages and one seriously wounded in addition to the reports of two killed?'
p2879
aI0
aa(lp2880
V553552452054556672
p2881
aS'  BBC saying two dead in East Paris but at least five hostages still held in supermarket. Terrible.'
p2882
aI7
aa(lp2883
V553550497852821504
p2884
aS' \nStopKillingInnocentPeople\nFreePalestine\nfreeBurma\nFreeSyria \nFreeKashmir\n'
p2885
aI0
aa(lp2886
V553550508565479425
p2887
aS' The horror continue.'
p2888
aI0
aaa(lp2889
(lp2890
V553590459688570880
p2891
aS'Several hostages freed at Jewish supermarket in Paris. Photo Thomas Samson AFP '
p2892
aI0
aa(lp2893
V553590981967511553
p2894
aS' Several hostages freed at Jewish supermarket in Paris. Photo Thomas Samson AFP '
p2895
aI0
aa(lp2896
V553590836588740609
p2897
aS' Several hostages freed at Jewish supermarket in Paris. Photo Thomas Samson AFP \n\nLiberi!'
p2898
aI0
aa(lp2899
V553590965307707393
p2900
aS'RT" Several hostages freed at Jewish supermarket in Paris. Photo Thomas Samson AFP '
p2901
aI0
aa(lp2902
V553591570680004608
p2903
aS' Several hostages freed at Jewish supermarket in Paris. Photo Thomas Samson AFP \n\nSchaut genau hin!'
p2904
aI0
aa(lp2905
V553591098074226688
p2906
aS' Several hostages freed at Jewish supermarket in Paris. Photo Thomas Samson AFP  Vincennes'
p2907
aI0
aa(lp2908
V553591453675696129
p2909
aS'MOOI.  Several hostages freed at Jewish supermarket in Paris. Photo Thomas Samson AFP '
p2910
aI0
aa(lp2911
V553591990856986624
p2912
aS'  Oh those poor people, so glad they were freed.'
p2913
aI0
aa(lp2914
V553590974044069888
p2915
aS' Several hostages freed at Jewish supermarket in Paris. Photo Thomas Samson AFP '
p2916
aI0
aa(lp2917
V553592018270978049
p2918
aS'Refns sendo liberados RT  Several hostages freed at Jewish supermarket in Paris. Photo Thomas Samson AFP '
p2919
aI0
aa(lp2920
V553591555479461888
p2921
aS' Several hostages freed at Jewish supermarket in Paris. Photo Thomas Samson AFP '
p2922
aI0
aa(lp2923
V553591179078410240
p2924
aS'Deep RT  Several hostages freed at Jewish supermarket in Paris. Photo Thomas Samson AFP '
p2925
aI0
aa(lp2926
V553591766893727744
p2927
aS'PIC RT:  Several hostages freed at Jewish supermarket in Paris. Photo Thomas Samson AFP '
p2928
aI0
aa(lp2929
V553591626485215232
p2930
aS' Several hostages freed at Jewish supermarket in Paris. Photo Thomas Samson AFP '
p2931
aI0
aa(lp2932
V553591360327282689
p2933
aS' Several hostages freed at Jewish supermarket in Paris. Photo Thomas Samson AFP  second terrorist dead'
p2934
aI0
aa(lp2935
V553590957317566466
p2936
aS' Several hostages freed at Jewish supermarket in Paris. Photo Thomas Samson AFP '
p2937
aI0
aa(lp2938
V553591134807920640
p2939
aS' RT " Several hostages freed at Jewish supermarket in Paris. Photo Thomas Samson AFP '
p2940
aI0
aa(lp2941
V553590917316505600
p2942
aS'RT  Several hostages freed at Jewish supermarket in Paris. Photo Thomas Samson AFP '
p2943
aI0
aa(lp2944
V553591653404270592
p2945
aS' Several hostages freed at Jewish supermarket in Paris. Photo Thomas Samson AFP '
p2946
aI0
aaa(lp2947
(lp2948
V553587303172833280
p2949
aS'Police taking people out of Paris grocery where hostages were being held. '
p2950
aI0
aa(lp2951
V553587686762479617
p2952
aS' The 6 are reported dead.'
p2953
aI0
aa(lp2954
V553588413195382784
p2955
aS'Thank G-d! RT  Police taking people out of Paris grocery where hostages were being held. '
p2956
aI0
aa(lp2957
V553598661863563264
p2958
aS' 4 people reported dead of six hostages. Sounding worse . Thnx for updates &amp; links.'
p2959
aI2
aa(lp2960
V553588252372779008
p2961
aS' Why do the "terrorists" look mindcontrolled?'
p2962
aI0
aa(lp2963
V553589500572491776
p2964
aS'  More workplace violence right, CNN?'
p2965
aI0
aa(lp2966
V553587370822750210
p2967
aS' Police taking people out of Paris grocery where hostages were being held. '
p2968
aI0
aa(lp2969
V553592274991714306
p2970
aS' '
p2971
aI6
aa(lp2972
V553588210769883136
p2973
aS' the brother Kouachi are dead'
p2974
aI0
aa(lp2975
V553588708826304514
p2976
aS' '
p2977
aI0
aa(lp2978
V553587829977399296
p2979
aS' Police taking people out of Paris grocery where hostages were being held. '
p2980
aI0
aa(lp2981
V553589221328715776
p2982
ag738
aI0
aa(lp2983
V553587586703171584
p2984
aS' Thank goodness! Is it possible for this to end with no more innocent lives lost?'
p2985
aI0
aa(lp2986
V553587863921917953
p2987
aS'  fingers crossed'
p2988
aI12
aa(lp2989
V553587860620996608
p2990
aS' hopefully the terrorist died a horrible painful tragic death. There is no pride or respect for martyrdom. pathetic'
p2991
aI0
aa(lp2992
V553588519848132609
p2993
aS' Police taking people out of Paris grocery where hostages were being held.  Prayers'
p2994
aI0
aa(lp2995
V553588231238090752
p2996
aS' Police taking people out of Paris grocery where hostages were being held. '
p2997
aI0
aa(lp2998
V553587678726594560
p2999
aS' Police taking people out of Paris grocery where hostages were being held. '
p3000
aI0
aa(lp3001
V553589677433712640
p3002
aS' Police taking people out of Paris grocery where hostages were being held.  '
p3003
aI0
aa(lp3004
V553588250087268352
p3005
aS' Police taking people out of Paris grocery where hostages were being held.  watching the news.'
p3006
aI0
aaa(lp3007
(lp3008
V552806309540528128
p3009
aS' CharlieHebdo : The cartoonists Charb &amp; cabu are dead.  '
p3010
aI0
aa(lp3011
V552806751746396160
p3012
aS'  CharlieHebdo : The cartoonists Charb &amp; cabu are dead.   '
p3013
aI0
aa(lp3014
V552808821434089472
p3015
aS'   Shit! " le grand Duduche" was my youth...'
p3016
aI0
aa(lp3017
V552808549349199872
p3018
aS'  A tragedy.'
p3019
aI0
aa(lp3020
V552807393453547522
p3021
aS'   oh god. No.'
p3022
aI0
aa(lp3023
V552808156468768769
p3024
aS"    I don't know who they are but lives are lost. This is shit. RIP guys."
p3025
aI4
aa(lp3026
V552807638233120769
p3027
aS' That is so, so sad.  '
p3028
aI0
aa(lp3029
V552808138831708160
p3030
aS'  oh my god! Horrific! Such waste and tragedy. CharlieHebdo'
p3031
aI0
aa(lp3032
V552810655657787392
p3033
aS'   Assassins did recon, knew victim names/faces, according to witnesses.'
p3034
aI0
aa(lp3035
V552811152456318976
p3036
aS'   as evidenced by the fact they killed 3 cartoonists - not just random people'
p3037
aI8
aa(lp3038
V552806614973960192
p3039
aS'  tragedy :( :( CharlieHebdo'
p3040
aI0
aa(lp3041
V552808387415900160
p3042
aS'  Nothing justifies this horrendous crime but why always mess with Islam?? Zillion things out there to make fun of'
p3043
aI0
aa(lp3044
V552811106046324736
p3045
aS"   What I mean is that they know Muslims take no jokes when it's related to their religion, book or prophet. Why do it?"
p3046
aI11
aa(lp3047
V552812220438945793
p3048
aS"  In other words, satire isn't satire and free speech isn't free speech if some people are 'beyond ridicule'."
p3049
aI12
aa(lp3050
V552811900686176257
p3051
aS"  Because *not* to do it for any religion creates a class of people who can't be criticised."
p3052
aI12
aa(lp3053
V552812425758912512
p3054
aS"   It's not a matter of criticism, it's insulting and demeaning and offensive"
p3055
aI14
aa(lp3056
V552813608694857730
p3057
aS'  Good satire often is. Their latest cover attacks an ANTI-Muslim writer - and Jesus: '
p3058
aI15
aa(lp3059
V552814686149017600
p3060
aS'   Saw that b4, thanks anyway'
p3061
aI16
aa(lp3062
V552812407064899585
p3063
aS"  true but there's a huge difference between being criticized and satirized, no?"
p3064
aI14
aa(lp3065
V552812983370268672
p3066
aS'  So Jon Stewart, John Oliver, Colbert, Private Eye all fair game? Freedom of speech includes ridicule.'
p3067
aI18
aa(lp3068
V552814637696450560
p3069
aS"  yes freedom of speech is v broad but some cultures r behind the anglo saxons on self criticism, that's all."
p3070
aI19
aa(lp3071
V552814267020636160
p3072
aS'   Freedom of speech shud never mean to give the press the right to trash others or ruin others image just bec they CAN'
p3073
aI19
aa(lp3074
V552814555764506624
p3075
aS'  So your answer to my question is yes. Enough said. Bye.'
p3076
aI21
aa(lp3077
V553219824059310080
p3078
aS"   why do it? Hmm, because that's how societies evolve, by breaking down taboos, accepting ridicule"
p3079
aI12
aa(lp3080
V553221961740857344
p3081
aS'   Thanks for the info. Is your server lagging?'
p3082
aI23
aa(lp3083
V553224135334051840
p3084
aS'   not lagging, just answered your original question: no one, no nation or faith system above ridicule'
p3085
aI24
aa(lp3086
V553225926436089856
p3087
aS'   Oh well, as u may have noticed, some ppl disagree with you!'
p3088
aI25
aa(lp3089
V553226523650437120
p3090
aS'   I respect their right to disagree with me and will defend that right, even if I disagree with them'
p3091
aI26
aa(lp3092
V552809081233080320
p3093
aS"  See my previous tweets. That's what Charlie Hebdo does. Latest cover savages an ANTI-Muslim writer - and Jesus."
p3094
aI11
aa(lp3095
V552808109551263744
p3096
aS"   I hate this. I hate that artists, journalists and funny people are killed in hate's name."
p3097
aI0
aa(lp3098
V552808399885185024
p3099
aS'   me too.'
p3100
aI29
aa(lp3101
V552812099294863362
p3102
aS' Exactly.   '
p3103
aI29
aa(lp3104
V552806767625641984
p3105
aS'RIP satire   CharlieHebdo : The cartoonists Charb &amp; Cabu are dead.  '
p3106
aI0
aa(lp3107
V552827794976022528
p3108
aS'    Brave men. Martyrs for freedom.'
p3109
aI32
aa(lp3110
V552807952315207680
p3111
aS'    '
p3112
aI32
aa(lp3113
V552808280074878979
p3114
aS'    I protect my mental health by avoiding videos of atrocities. Seen too many IRL.'
p3115
aI34
aa(lp3116
V552808639283486722
p3117
aS"    no blood, just hear the shouting. I don't post any videos where u see blood or killing"
p3118
aI35
aa(lp3119
V552817422366154752
p3120
aS'    Please RT - Download a hilarious FREE Koran PARODY '
p3121
aI32
aa(lp3122
V552808046938697729
p3123
aS' Just awful. '
p3124
aI0
aaa(lp3125
(lp3126
V552833028201144320
p3127
aS'URGENT: 3 gunmen involved in deadly attack on CharlieHebdo - French interior minister  Paris '
p3128
aI0
aa(lp3129
V552838040503472128
p3130
aS' this is mossad'
p3131
aI0
aa(lp3132
V552836259283218434
p3133
aS' All in the name of oil.'
p3134
aI0
aa(lp3135
V552877204304977921
p3136
aS' 12 french death is not even worth discussing or spoken about compared to 100s which are killed by USA &amp; NATO bombing on daily basis'
p3137
aI0
aa(lp3138
V552833464933052416
p3139
aS' right one is inside the car'
p3140
aI0
aa(lp3141
V552834026948415488
p3142
aS' not men, not human, these are Zealots, the same beasts Mosses used in the murder of 3 scores of ten when back from the mountain.'
p3143
aI0
aa(lp3144
V552851863671169024
p3145
aS' bastards'
p3146
aI0
aa(lp3147
V552833272724852736
p3148
aS' Sickening. Frenchmen must demand and election and voted FN to get those swine out of their country. This is a MUSLIM problem.'
p3149
aI0
aa(lp3150
V552835278625177600
p3151
aS'  Islam does not condone such swine behavior or violence in anyway shape or form. Its a psychiatric problem,!'
p3152
aI7
aa(lp3153
V552833887261691905
p3154
aS' OK 63 Drills Since 93 Where Drill = Actual Terrorist Attack Waco Explosion  '
p3155
aI0
aa(lp3156
V552840222636265472
p3157
aS' did one of them drop his shoe? Surely catch those cunts'
p3158
aI0
aa(lp3159
V552876728326971393
p3160
aS' 1000s of muslims russian ukranian &amp; africans die each day europeans dont care , why the world is so concerned with 12 french death'
p3161
aI0
aa(lp3162
V552833319747194882
p3163
aS' SendThemHome'
p3164
aI0
aa(lp3165
V552842163160367104
p3166
aS' just my 2 cents but URGENT is really not the best translation for . just write BREAKING and wed all be better off'
p3167
aI0
aa(lp3168
V552842861209993217
p3169
aS' Great travel post! Why Not post on  Proximity Based Travel Network? '
p3170
aI0
aa(lp3171
V552833762174992384
p3172
aS" maybe they should stop funding terrorists in Syria, Lybia etc. it blows back all the time. Remember Afghanistan in 80's"
p3173
aI0
aa(lp3174
V552836882770690049
p3175
aS'  Just kill them.'
p3176
aI0
aaa(lp3177
(lp3178
V552792544132997121
p3179
aS'BREAKING Charlie Hebdo latest: 11 dead 10 wounded (five critical) two gunmen unaccounted for  '
p3180
aI0
aa(lp3181
V552794125167493120
p3182
aS'Horrific  BREAKING Charlie Hebdo latest: 11 dead 10 wounded (five critical) two gunmen unaccounted for '
p3183
aI0
aa(lp3184
V552800910670569472
p3185
aS' Wild West Politics: Western Europe is suffering from its internal contradictions; welcome to the tribal politics of the future.'
p3186
aI0
aa(lp3187
V552795993553764354
p3188
aS' \nShould we blame the provocative or the provoked ??'
p3189
aI0
aa(lp3190
V552798917541511169
p3191
aS'   the provoked.'
p3192
aI3
aa(lp3193
V552805237510385664
p3194
aS'   \na provocation is an invitation !!'
p3195
aI4
aa(lp3196
V552805439474515968
p3197
aS'   in invitation to getting killed? you utter utter arse.'
p3198
aI5
aa(lp3199
V552816964436230144
p3200
aS'....an invitation to grow the fuck up and stop being touchy, murderous bastards?    '
p3201
aI5
aa(lp3202
V552805557896482816
p3203
aS'You are a mad cunt     go fuck yourself '
p3204
aI5
aa(lp3205
V552806438629048320
p3206
aS'    invitation to go how far?'
p3207
aI8
aa(lp3208
V552806661149425664
p3209
aS"    I'm too busy laughing to care."
p3210
aI9
aa(lp3211
V552806259767123968
p3212
aS'   \na provocation is an open invitation !!'
p3213
aI8
aa(lp3214
V552806489363337217
p3215
aS"I'm in London right now, feel free to make an appointment   "
p3216
aI11
aa(lp3217
V552808594228670465
p3218
aS'    To murder? In the name of a peaceful religion?'
p3219
aI11
aa(lp3220
V552805909425307648
p3221
aS'   \na provocation is an invitation !!'
p3222
aI8
aa(lp3223
V552806009157464064
p3224
aS'I feel provoked, luckily i believe in Liberty, o well words are wind    '
p3225
aI8
aa(lp3226
V552798994456674304
p3227
aS'Always the provoked of course, was that rhetorical?   '
p3228
aI3
aa(lp3229
V552792742842363905
p3230
aS' Omg! :-('
p3231
aI0
aaa(lp3232
(lp3233
V553505242554175489
p3234
aS'Suspects in CharlieHebdo attack spoke to police by phone and said they wanted to die as martyrs, says French MP. '
p3235
aI0
aa(lp3236
V553693040649334785
p3237
aS'   Certainly not  matyres - sorry no thousands of virgins waiting for them just fire and brimstone.'
p3238
aI0
aa(lp3239
V553703181440786435
p3240
aS' , Hi Betty.. You are in Australia?'
p3241
aI1
aa(lp3242
V553824308959928320
p3243
aS' ok'
p3244
aI0
aa(lp3245
V553511231735099392
p3246
aS' Thy wil bcum satans aftr death ! kep drmng abt martdm &amp; abt thse 72 virgins n heavn ! N India we mde mny trrorsts, satans n kashmir !o'
p3247
aI0
aa(lp3248
V553507669831876608
p3249
aS' tell them we want to help them as much as possible.'
p3250
aI0
aa(lp3251
V553513937246097408
p3252
aS' Good. Some assistance please Messieurs Les Gendarmes !'
p3253
aI0
aa(lp3254
V553506555250106368
p3255
aS' that should be no problem, millions wants to "help" them, but let the hostages free first  parisattack'
p3256
aI0
aa(lp3257
V553516610275655680
p3258
aS' The police r there trying to do a job under very difficult circumstances. We all realize how brave they r and thank them'
p3259
aI0
aa(lp3260
V553689869810409473
p3261
aS' That is what they really want, another way would be a shame for them.'
p3262
aI0
aa(lp3263
V553509339701727233
p3264
aS' call them back and explain to them the definition of martyrs idiots   CharlieHebdo'
p3265
aI0
aa(lp3266
V553508940634673152
p3267
aS" chai....by claiming innocent lives? that's really Awkward!"
p3268
aI0
aa(lp3269
V553505379079159808
p3270
aS" But, you know, it's because they're muslim.  We can't talk about that.  GFY"
p3271
aI0
aa(lp3272
V553506956686532608
p3273
aS' Suspects in CharlieHebdo attack spoke to police by phone and said they wanted to die as martyrs, says MP. '
p3274
aI0
aa(lp3275
V553620764516429825
p3276
aS' they can never be'
p3277
aI0
aaa.