(lp0
(lp1
(lp2
V544306402731507712
p3
aS"pmharper tweets 'Canada's thoughts and prayers are with our Australian friends.' 13-40 hostages held in cafe in Sydney. SydneySiege"
p4
aI0
aa(lp5
V544320468892020736
p6
aS' \n13 to 40 hostages?!? \nSydneySiege'
p7
aI0
aa(lp8
V544313623448137729
p9
aS" pray , usually it's help allot before everyone will go straight to haven.Flag is comon bulshit about Muhammad etc."
p10
aI0
aa(lp11
V544482722295844864
p12
aS'  because they gives us idea to create jobs: starting from now everybody well be scaned before get in any coffee shop in CA :-)'
p13
aI0
aaa(lp14
(lp15
V544268732046913536
p16
aS"BREAKING: Hostages are being held and a siege is taking place at Sydney's Lindt Chocolat Cafe in Martin Place."
p17
aI0
aa(lp18
V544275696433246208
p19
aS' send your SAS in and fast'
p20
aI0
aa(lp21
V544279970483159040
p22
aS" BREAKING: Hostages are being held and a siege is taking place at Sydney's Lindt Chocolat Cafe in Martin Place. "
p23
aI0
aa(lp24
V544301461845188608
p25
aS"Wow! I was just there RT  BREAKING: Hostages are being held &amp; a siege is taking place at Sydney's Lindt Cafe in Martin Place"
p26
aI0
aa(lp27
V544275161982455808
p28
aS"Forced to hold ISIS flag? MT  BREAKING: Hostages held &amp; siege taking place at Sydney's Lindt Chocolat Cafe in Martin Place."
p29
aI0
aaa(lp30
(lp31
V544305540286148609
p32
aS'A man believed to be the gunman filmed wearing a black headband inside the cafe  '
p33
aI0
aa(lp34
V544306412562960386
p35
aS"  Is he upset that the cafe didn't serve Halal products?"
p36
aI0
aa(lp37
V544307524770738176
p38
aS'   somebody crossed their leg and show him the bottom of their shoe'
p39
aI0
aa(lp40
V544307868540076033
p41
aS' Your Tweet Takes Center Stage On '
p42
aI0
aa(lp43
V544327005471526912
p44
aS'   Looks like clean sniper shot.  Should have take him out.  Pigs, scum, low life losers.  All terrorists are evil.'
p45
aI0
aa(lp46
V544306589252198400
p47
aS'  The West, wake up! '
p48
aI0
aa(lp49
V544306003026538497
p50
aS'  time to finish these Islamic pricks'
p51
aI0
aa(lp52
V544306128805724160
p53
aS' A man believed to be the gunman filmed wearing a black headband inside the cafe"\n\nFilmed? Shoot the bastard intheface'
p54
aI0
aa(lp55
V544306274146713600
p56
aS'  its like 9/11 all over again'
p57
aI0
aa(lp58
V544310038613852160
p59
aS'  \n the BBC translated the Arabic letters on the headband and it says.."I CAN"T BREATHE!"...lol'
p60
aI0
aa(lp61
V544315524646043650
p62
aS"  That's funny!!"
p63
aI9
aa(lp64
V544315887491117058
p65
aS'  \n in less than 24 hrs his headband will really be telling the tuuth..LOL!'
p66
aI10
aa(lp67
V544317774495875072
p68
aS'  LOL'
p69
aI11
aa(lp70
V544333035370721280
p71
aS'The face of terror in Sydney  '
p72
aI0
aa(lp73
V544307069864538113
p74
aS'   Why not take him out? Clear view'
p75
aI0
aaa(lp76
(lp77
V544491151118860289
p78
aS'SYDNEY HOSTAGE-TAKER\n- Man Monis, 49\n- Originally from Iran\n- Self-styled sheikh\n- Accused of sexually assaulting 7 women\nDEVELOPING..'
p79
aI0
aa(lp80
V544506524794908672
p81
aS' check '
p82
aI0
aa(lp83
V544506659973136384
p84
aS'  I saw'
p85
aI1
aa(lp86
V544510385701662720
p87
aS" so he's not even muslim? wow this is uh weird"
p88
aI0
aa(lp89
V544491585384505344
p90
aS"  shit tell him to get on Cosby's level"
p91
aI0
aa(lp92
V544493109963661312
p93
aS'  Doxed faggot!'
p94
aI0
aa(lp95
V544491587271544832
p96
aS'  \nLol "Self Styled Sheikh" ?\nI think I\'ll be Prime Minister then'
p97
aI0
aa(lp98
V544492317546393600
p99
aS"  I also like to see myself as a self-styled billionaire though it doesn't help me with overdraft charges, lol."
p100
aI6
aa(lp101
V544493474612256768
p102
aS'  \nLol'
p103
aI7
aaa(lp104
(lp105
V544289311504355328
p106
aS'Statement from Prime Minister Tony Abbott on Sydney hostage situation. '
p107
aI0
aa(lp108
V544300122998194177
p109
aS'  Urgh, the amount of lies that have come out of Abbott\'s mouth, his words of "comfort" mean nothing to us!'
p110
aI0
aa(lp111
V544293230649810944
p112
aS"  AU GOV and Tony Abbott is responsible for this mess!! AU Gov created the 'Rebels' Frankenstein in Syria!!"
p113
aI0
aaa(lp114
(lp115
V544324444773433348
p116
aS'Uber says it has hiked prices in Sydney to "encourage more drivers to come online &amp; pick up passengers."  SydneySiege'
p117
aI0
aa(lp118
V544326091519700992
p119
aS' Uber says it has hiked prices in Sydney to "encourage more drivers to come online &amp; pick up SydneySiege Uber=ugly opportunism!'
p120
aI0
aa(lp121
V544354628775600128
p122
aS'  "Grease my palm with silver lovie." The disgraceful pricks. Run \'em outta town folks.'
p123
aI1
aa(lp124
V544326145210994688
p125
aS" If car can't get to rider, rider can't walk to car &amp; unable to schedule pickups, what is an  rider to do? "
p126
aI0
aa(lp127
V544326095630123008
p128
aS" they're asking people to stay indoors and don't go to the CBD. Why would you send drivers there?? Really disappointed of "
p129
aI0
aa(lp130
V544324609424625665
p131
aS' Uber is facing problems enough, will a price hike really help?'
p132
aI0
aa(lp133
V544324739356188674
p134
aS'. How altruistic of them!'
p135
aI0
aa(lp136
V544325103693987840
p137
aS' you might want to rethink your hashtag'
p138
aI0
aa(lp139
V544325077249302528
p140
aS'Fuck you    Uber says it has hiked prices in Sydney to "encourage more drivers to come online &amp; pick up passengers."'
p141
aI0
aa(lp142
V544324734947577856
p143
aS" They charged me $215 for a $20 fare. Neveer use them again after they've exploited situations."
p144
aI0
aa(lp145
V544325472906403841
p146
aS' Whaaaat? Is  trying to "shoot the moon" when it comes to PR?'
p147
aI0
aa(lp148
V544325665693376512
p149
aS'Surge pricing during a hostage crisis filthy RT  Uber says it has hiked prices in Sydney...  SydneySiege'
p150
aI0
aa(lp151
V544324801188605952
p152
aS' scum'
p153
aI0
aa(lp154
V544325226515808256
p155
aS' Uber says it has hiked prices in Sydney to "encourage more drivers to come online &amp; pick up passengers." Right.'
p156
aI0
aa(lp157
V544324907400568832
p158
aS' Deplorable'
p159
aI0
aa(lp160
V544325147411234817
p161
aS'. - I am OTR about distaste of surge pricing, but do you think your click bait story about Uber in Sydney is well timed + tasteful?'
p162
aI0
aa(lp163
V544324685446787073
p164
aS' nice try, not buying ...'
p165
aI0
aa(lp166
V544325421022457856
p167
aS" what's not well-timed is what Huber is doing in a crisis situation. Uber has absolutely no integrity. Disgusting."
p168
aI0
aaa(lp169
(lp170
V544514564407427072
p171
aS'Police seem relaxed, suggesting all hostages are out and gunman no longer a threat  sydneysiege'
p172
aI0
aa(lp173
V544515558679805952
p174
aS'  hopefully the terrorist got a bullet to his hand.'
p175
aI0
aa(lp176
V544515461694889985
p177
aS'  '
p178
aI0
aa(lp179
V544515757069975552
p180
aS' hmm'
p181
aI0
aa(lp182
V544515072182063106
p183
aS'.  Hopefully "neutralized"!'
p184
aI0
aaa(lp185
(lp186
V544391533240516608
p187
aS'Five hostages have escaped the besieged Lindt Cafe in Sydney | Our latest update:  '
p188
aI0
aa(lp189
V544399653332992000
p190
aS' Five hostages have escaped the besieged Lindt Cafe in Sydney | su cara lo dice todo... '
p191
aI0
aa(lp192
V544392579932880897
p193
aS'Terrorised  5 hostages escaped besieged Lindt Cafe in Sydney | Our latest update:  '
p194
aI0
aa(lp195
V544394431520993280
p196
aS' '
p197
aI0
aa(lp198
V544395369967132672
p199
aS" \nFinancial Times: Explaining Bahrain's land reclamation controversy on Vimeo - "
p200
aI0
aaa(lp201
(lp202
V544518335019229184
p203
aS'BREAKING: At least two people have died following the SydneySiege. 5 people are being treated by paramedics.'
p204
aI0
aa(lp205
V544518568633991170
p206
aS' BREAKING: At least two people have died following the SydneySiege. 5 people are being treated by paramedics. nooooo'
p207
aI0
aa(lp208
V544520125936721920
p209
aS' NOO..'
p210
aI0
aa(lp211
V544537630218539010
p212
aS' ideally the 2 dead are the ones that were practicing their "Religion of Peace"'
p213
aI0
aa(lp214
V544519398543724544
p215
aS' BREAKING: At least two people have died following the SydneySiege. 5 people are being treated by paramedics. Please no'
p216
aI0
aa(lp217
V544518918912495616
p218
aS' '
p219
aI0
aa(lp220
V544520807074918400
p221
aS'  not confirmed'
p222
aI0
aa(lp223
V544519768850841600
p224
aS" what's happened to the guy!"
p225
aI0
aa(lp226
V544519121405100033
p227
aS' BREAKING: At least two people have died following the SydneySiege. 5 people are being treated by paramedics. NO PLEASE'
p228
aI0
aa(lp229
V544520376722927616
p230
aS'  omg no'
p231
aI0
aa(lp232
V544519563308580864
p233
aS' noooooo :((('
p234
aI0
aa(lp235
V544519358232674305
p236
aS'  not good news....'
p237
aI0
aaa(lp238
(lp239
V544350712365207552
p240
aS'BREAKING Reports two customers and an employee have escaped the SydneySiege '
p241
aI0
aa(lp242
V544352182401638401
p243
aS' BREAKING Reports two customers and an employee have escaped the SydneySiege  2GB '
p244
aI0
aa(lp245
V544351320174772224
p246
aS" here's to all the hostages getting safe passage on this day!  SydneySeige"
p247
aI0
aa(lp248
V544351255057813505
p249
aS" You're reporting a report? What's your source?"
p250
aI0
aaa(lp251
(lp252
V544380742076088320
p253
aS'This is shot that captures the sydneysiege: sheer terror/relief of escaped hostages, incredible work of  '
p254
aI0
aa(lp255
V544390173551652865
p256
aS'  all I want to do is give her a hug. Poor girl. Does bring tears to the eye'
p257
aI0
aa(lp258
V544382368304214016
p259
aS" FFS, she's been through enough without you plastering close ups of her face all over twitter. Leave her alone. "
p260
aI0
aa(lp261
V544395872067272704
p262
aS'   amen to that!!! Bloody media. Leave the poor girl alone.'
p263
aI2
aa(lp264
V544392141036728321
p265
aS'   So horrendously terrifying.'
p266
aI0
aa(lp267
V544397611172495360
p268
aS' A shot that captures the sydneysiege: sheer terror/relief of escaped hostages  so distressing'
p269
aI0
aa(lp270
V544381686566227968
p271
aS'  powerful shot'
p272
aI0
aa(lp273
V544383207420866560
p274
aS' Why is her face not obscured? Think about he family.'
p275
aI0
aa(lp276
V544384650441797633
p277
aS"  I understand what you're saying but that would kind of defeat the purpose, apt."
p278
aI7
aa(lp279
V544385234016288768
p280
aS"  I'm just finding a lot of the gratuitous photo tweeting a bit of a strain."
p281
aI8
aa(lp282
V544385799416848384
p283
aS'  Agree, but that image is a powerful encapsulation of how awful this whole thing is. Really brings it home.'
p284
aI9
aa(lp285
V544385904446435328
p286
aS'  I know why it is being circulated but perhaps I wish it was being used with some more restraint.'
p287
aI10
aa(lp288
V544385064100843520
p289
aS'   So relieved some have escaped/been released.  The experience will haunt them though. Brave police.'
p290
aI0
aa(lp291
V544384019857960961
p292
aS'   Better than the cretins posting selfies from the same area'
p293
aI0
aa(lp294
V544384689192984576
p295
aS'    some people have no heart taking selfies when around the area'
p296
aI13
aa(lp297
V544384226855227394
p298
aS'   seconded'
p299
aI13
aa(lp300
V544384149914533889
p301
aS"  this was live on TV so they didn't have time to blur faces. Keep in mind it's LIVE, no time for editing."
p302
aI0
aa(lp303
V544381404331900928
p304
aS"  they'd be the best arms in the world to have around you after the ordeal she'd have gone through sydneysiege"
p305
aI0
aa(lp306
V544381350694752256
p307
aS'  the identity of hostages should not go public'
p308
aI0
aa(lp309
V544395599345242113
p310
aS'   agreed. No naming hostages. We do not need to know. Please respect them.'
p311
aI18
aaa(lp312
(lp313
V544287209730236416
p314
aS'Sydney Opera House evacuated, concourse deserted  SydneySiege (via  '
p315
aI0
aa(lp316
V544301354034794496
p317
aS' Sydney Opera House evacuated, concourse deserted  SydneySiege (via  '
p318
aI0
aa(lp319
V544293447717650432
p320
aS'   My heart and prayers go out to the good people of Sydney and Australia.  nyc'
p321
aI0
aa(lp322
V544294834216108032
p323
aS'    My heart and prayers go out to the good people of Sydney and Australia.  nyc Amen. '
p324
aI2
aa(lp325
V544328560689684480
p326
aS'RT  Sydney Opera House evacuated, concourse deserted  SydneySiege (via  '
p327
aI0
aa(lp328
V544333585847971841
p329
aS'   \nThe cost of terrorism, NUKE IRAN TO HELP STOP THIS.'
p330
aI0
aa(lp331
V544338192703717376
p332
aS' Really want to stop it? Bomb Mecca! Level it.  '
p333
aI5
aa(lp334
V544306389544624129
p335
aS'   \nHope they rescue the hostages. .and fry the islamutards.'
p336
aI0
aa(lp337
V544292469866000387
p338
aS' Sydney Opera House evacuated, concourse deserted  SydneySiege (via   '
p339
aI0
aaa(lp340
(lp341
V544291804057960448
p342
aS'FIRST PHOTOS: Hostage pressed against a window. SydneySiege '
p343
aI0
aa(lp344
V544301820865429506
p345
aS'Via  \nFIRST PHOTOS: Hostage pressed against a window. \nSydneySiege '
p346
aI0
aa(lp347
V544295112545538048
p348
aS' FIRST PHOTOS: Hostage pressed against a window. SydneySiege '
p349
aI0
aa(lp350
V544326802877857792
p351
aS' STAGED BS'
p352
aI0
aa(lp353
V544292125102587904
p354
aS''
p355
aI0
aa(lp356
V544299300260311040
p357
aS' people and police are requesting not to tweet photos/information.'
p358
aI0
aa(lp359
V544534380614807552
p360
aS' CAUTION Be aware that this could be a FalseFlag Event unfolding right across the street from channel 7 coincidence? Perhaps'
p361
aI0
aa(lp362
V544292150411026432
p363
aS'Smfh " FIRST PHOTOS: Hostage pressed against a window. SydneySiege '
p364
aI0
aa(lp365
V544308699981164545
p366
aS' Please stop releasing these pictures!'
p367
aI0
aa(lp368
V544534375577423872
p369
aS' HMMM ! CAUTION ! COULD BE A FalseFlag EVENT MANY CONFLICTING MSM REPORTS COMING FROM siege Sydney Atm'
p370
aI0
aa(lp371
V544302813615247360
p372
aS' FIRST PHOTOS: Hostage pressed against a window. SydneySiege  SHIT'
p373
aI0
aaa(lp374
(lp375
V544350567183556608
p376
aS'We can see people coming out a firedoor near the Lindt cafe to waiting police. 2-3 people. Hard to see. sydneysiege'
p377
aI0
aa(lp378
V544351136518385664
p379
aS'  does it mean the hostage crisis is over ?'
p380
aI0
aa(lp381
V544351106000625664
p382
aS'  have they shot them'
p383
aI0
aaa(lp384
(lp385
V544293753130082305
p386
aS'DETAILS: The hostage site is Lindt Chocolat Cafe near Sydney Harbor  '
p387
aI0
aa(lp388
V544294275723558912
p389
aS' isis love choclate... Who knew.. Lol. They gotta make sure its alcohol free ofcourse'
p390
aI0
aa(lp391
V544306124124860416
p392
aS'  get on that one'
p393
aI0
aa(lp394
V544395145529942016
p395
aS' A breakdown of what we know and what we dont: People Hostage at Caf in Sydney '
p396
aI0
aa(lp397
V544294742260215809
p398
aS' this is exactly why Feinstein can shove that CIAReport up her ass'
p399
aI0
aa(lp400
V544296936019611648
p401
aS". Yeah it's the same Johnny F'cknuts who was going to kidnap and kill 2 police in Birmingham, UK last Tuesday."
p402
aI0
aa(lp403
V544293997825777664
p404
aS' Evacuate the city, asap! We do not know if he acts on his own yet he threatens he has devices all over Sydney.'
p405
aI0
aa(lp406
V544294473292079104
p407
aS"  well...you're  just a silly paranoid fuck now aren't you"
p408
aI6
aa(lp409
V544294802129707008
p410
aS'  I hate terrorism and I am worried about the people of our western civilisation.'
p411
aI7
aa(lp412
V544295402510761984
p413
aS"  western countries have killed more innocent children than hitler assmunch. But you prob don't consider that terror??"
p414
aI8
aa(lp415
V544298217421438976
p416
aS' Another fine example of Islam, the peaceful religion, right? Where are the ModerateMuslims speaking out against this? BanIslam'
p417
aI0
aaa(lp418
(lp419
V544352727971954690
p420
aS'Local media: 3 people appear to escape from Martin Place, Sydney, caf, amid hostage situation -  '
p421
aI0
aa(lp422
V544355621936439296
p423
aS'  Fyi '
p424
aI0
aa(lp425
V544358922904420352
p426
aS' '
p427
aI0
aa(lp428
V544352796523651073
p429
aS' For Only $9 You Can Buy 3K Followers '
p430
aI0
aa(lp431
V544352859773755392
p432
aS'  hum...'
p433
aI3
aa(lp434
V544367318193930240
p435
aS' ISIS flag also shown! These sub-humans kept their word! religionofpeace  they murder rape bomb all non believers of allah!'
p436
aI0
aa(lp437
V544367820407332864
p438
aS'  let it be a great war. The world finally needs one..  greed, selfishness, corruption'
p439
aI5
aa(lp440
V544358798895636480
p441
aS'  we results'
p442
aI0
aa(lp443
V544354603211710464
p444
aS'MT  Three people appear to escape from Martin Place, Sydney, caf, amid hostage situation -  '
p445
aI0
aaa(lp446
(lp447
V544301453717041152
p448
aS'BREAKING UPDATE: Gunman says four devices are located around Sydney. Security response underway. Police calling for calm. 9News'
p449
aI0
aa(lp450
V544301643194716160
p451
aS' BREAKING UPDATE: Gunman says four devices are located around Sydney. Security response underway. Police calling for calm." \n\nRIP'
p452
aI0
aa(lp453
V544301918773075969
p454
aS'  u wot m8?'
p455
aI1
aa(lp456
V544302363960684544
p457
aS' Track em down and feed em anally like we do over here in the good ol US of A.'
p458
aI0
aa(lp459
V544301863500541952
p460
aS' I had a feeling this threat was coming.  Keep all of Australia in my thoughts.'
p461
aI0
aa(lp462
V544301911303012352
p463
aS' Scum.'
p464
aI0
aa(lp465
V544302335540084736
p466
aS' Prayers for sydney'
p467
aI0
aa(lp468
V544302181848195073
p469
aS' BREAKING UPDATE: Gunman says four devices are located around Sydney. Security response underway" crap'
p470
aI0
aa(lp471
V544302536803745792
p472
aS'  whats going on'
p473
aI0
aa(lp474
V544303487698210817
p475
aS'  isis stuff'
p476
aI8
aa(lp477
V544303740485128194
p478
aS'  jesus and is sydney a place'
p479
aI9
aa(lp480
V544303978373070853
p481
aS'  its a major city in australia ??????????? the olympics were there in 2000 ??????'
p482
aI10
aa(lp483
V544302024352092162
p484
aS'  oh cock'
p485
aI0
aa(lp486
V544302134943297536
p487
aS'  oh cock indeed'
p488
aI12
aa(lp489
V544302117930799104
p490
aS' Obviously, a fan of DIE HARD WITH A VENGEANCE.  May be bluffing.'
p491
aI0
aa(lp492
V544302129083846656
p493
aS'  Sounds like what happened in India several years ago.'
p494
aI0
aa(lp495
V544302387075100672
p496
aS' UPDATE: Gunman says 4 devices are located around Sydney. Security response underway. Police calling for calm. Sherlock!?!?'
p497
aI0
aaa(lp498
(lp499
V544510450101415936
p500
aS'Several more hostages flee from cafe under siege in Sydney, local media say '
p501
aI0
aa(lp502
V544510910963134464
p503
aS' Several more hostages flee from cafe under siege in Sydney, local media say '
p504
aI0
aa(lp505
V544511468264488960
p506
aS' ... hostages in a cafe? For 2 days?..... Australian crime is hilarious'
p507
aI0
aa(lp508
V544510638202966016
p509
aS' Several more hostages flee from cafe under siege in Sydney, local media say  thank god'
p510
aI0
aa(lp511
V544510896614412288
p512
aS' apparently they snuck out when he went for a piss'
p513
aI0
aa(lp514
V544512659618414594
p515
aS' Several more hostages flee from cafe under siege in Sydney, local media say '
p516
aI0
aa(lp517
V544511608551002113
p518
aS'  A gunshot heard?'
p519
aI0
aa(lp520
V544511221324472321
p521
aS' Several more hostages flee from cafe under siege in Sydney, local media say  '
p522
aI0
aa(lp523
V544511027526660096
p524
aS' '
p525
aI0
aa(lp526
V544514588193325056
p527
aS'Blessings!  Check out latest Radio Show ANYTIME! @\n or  RT TY  DISCLOSURE NESARA'
p528
aI0
aa(lp529
V544511082472415232
p530
ag355
aI0
aaa(lp531
(lp532
V544515538383564801
p533
aS'Haron Monis,Hostage-taker in Sydney: Fled Iran 96,suspect in ex-wife killing,46 sex assaults  '
p534
aI0
aa(lp535
V544520773567008768
p536
aS'  Apparently he was out on bail! Some judge has questions to answer.'
p537
aI0
aa(lp538
V544519105026719744
p539
aS'  seems like an affable chap'
p540
aI0
aa(lp541
V544539217725231105
p542
aS'  BASTARD whined he was "tortured" in prison. Didn\'t have to jump 2 his death, burn to death or was beheaded'
p543
aI0
aa(lp544
V544518539936555008
p545
aS' Yeah , I read about this joker this morning - alleged murder and sex assaults allegations really had my eyebrow raised !'
p546
aI0
aa(lp547
V544522210388746240
p548
aS'  in simple word a Mentle'
p549
aI0
aa(lp550
V544537747436761088
p551
aS'  46 sex assaults, murdered wife AND STILL WALKING AROUND!!!  Unbelievable..talk about a war on women....'
p552
aI0
aa(lp553
V544521204401729536
p554
aS' Is he consider as terrorist or just a criminal person  as his faith not Sunni Islam ?'
p555
aI0
aa(lp556
V544535075690663937
p557
aS' Is there a headline writer position at your place of employment?'
p558
aI0
aa(lp559
V544540011581161472
p560
aS"  Guess what?  THESE are the type of individuals that 'waterboarding' intends to discover.   "
p561
aI0
aa(lp562
V544529110266310656
p563
aS'  Why was this mad man not behind bars? Ugh'
p564
aI0
aa(lp565
V544527922837479425
p566
aS'  Lots of fancy words being used to describe him. I say - sick, deranged, *expletive* looking for "suicide by cop".'
p567
aI0
aa(lp568
V544530369312477184
p569
aS'  No wonder dude upped his game. Seems like men engaged in femicide &amp; sexual assaults in Australia can roam freely?'
p570
aI0
aa(lp571
V544533656794976256
p572
aS' And Australia patronized him in hate of Iran i guess. '
p573
aI0
aa(lp574
V544516901297463296
p575
aS'  - FORTY SIX?!'
p576
aI0
aa(lp577
V544517034554707968
p578
aS' Quite a dude, isnt he. Sick man.'
p579
aI14
aa(lp580
V544517449606234112
p581
aS" - Indeed. Wondering why he wasn't locked up or deported when he was accused..."
p582
aI15
aa(lp583
V544517799335694336
p584
aS' Truth. There are plenty of these sickos hiding under cover of civil society the world over, all cos processes are compromised.'
p585
aI16
aaa(lp586
(lp587
V544462330105712640
p588
aS"Sydney airspace wasn't closed. A second terror suspect wasn't arrested. Myths around sydneysiege debunked. "
p589
aI0
aa(lp590
V544465317229907968
p591
aS" impressed with ur news coverage today! nu found respect for your reporters. glad 2 see u didn't follow the daily telegraph sydneysiege"
p592
aI0
aa(lp593
V544480713454538753
p594
aS" Sydney airspace wasn't closed. A second terror suspect wasn't arrested. Myths around sydneysiege debunked. "
p595
aI0
aa(lp596
V544470190768279553
p597
aS'I do so appreciate a debunk story headline/tweet which actually contains debunks rather than a confusing/leading question. '
p598
aI0
aa(lp599
V544463130550489088
p600
aS' hardly myths. Merely poor, unconfirmed reporting. sydneysiege'
p601
aI0
aa(lp602
V544466740332462080
p603
aS"The facts  Sydney airspace wasn't closed. 2nd terror suspect wasn't arrested. Myths of sydneysiege debunked. "
p604
aI0
aa(lp605
V544468719624138752
p606
aS"  I'm fascinated by Ray Hadley's role in sydneysiege. Genuine intermediary or opportunistic blowhard?"
p607
aI0
aa(lp608
V544469733488074752
p609
aS"   I'm fascinated by Ray Hadley's role in sydneysiege. Genuine intermediary or opportunistic blowhard?\n\nDoor B"
p610
aI6
aa(lp611
V544482801392054272
p612
aS'     Hmmm, I think you and I both know that answer'
p613
aI7
aa(lp614
V544599722577514496
p615
aS'      Hmmm, I think you and I both know that answer\n\nYep.'
p616
aI8
aa(lp617
V544757182521032704
p618
aS'     Sometimes I hate MSM so much'
p619
aI9
aa(lp620
V544759066950524928
p621
aS"      Sometimes I hate MSM so much\n\nHadley isn't mainstream."
p622
aI10
aa(lp623
V544761239641923584
p624
aS"      no way he's a right wing extremist"
p625
aI11
aa(lp626
V544763645146566656
p627
aS"      that should be, no way, he's a rw extremist. Which he is."
p628
aI12
aa(lp629
V544764204071153664
p630
aS'      \n\nUnderstood.\n:-)'
p631
aI13
aa(lp632
V544763686858944512
p633
aS"       no way he's a right wing extremist\n\n"
p634
aI12
aa(lp635
V544761639031939072
p636
aS'     "Most popular Talk- back" say the blurbs'
p637
aI11
aa(lp638
V544763927595188224
p639
aS"     \n\nYep, but there's nothing mainstream about him."
p640
aI16
aa(lp641
V544764543369351169
p642
aS"     Ray Hadley has rated number one in Sydney since 2004. Truly hope RWNJ's wakeup"
p643
aI17
aa(lp644
V544771836672618496
p645
aS"     \n\nThey won't.\nHadley feeds the rednecks paranoia with his own ego."
p646
aI18
aa(lp647
V544470157670641664
p648
aS'    ESpecially as Junior Hadley is a NSW Plod - wonder if he used his contacts to get stuff not public'
p649
aI7
aa(lp650
V544473329822756864
p651
aS'    \n\nYes, more than likely Frankie.'
p652
aI20
aa(lp653
V544762521974890496
p654
aS'     Doing what Hadley does best'
p655
aI7
aa(lp656
V544764006368411648
p657
aS'      Doing what Hadley does best\n\nIndeed.'
p658
aI22
aa(lp659
V544472543197818881
p660
aS'Racist shock jocks Jones &amp; Hadley     have sent more angry young men into arms of Daesh than anybody!'
p661
aI7
aa(lp662
V544486255921078272
p663
aS'     Lol tell us another !'
p664
aI24
aa(lp665
V544762753890525184
p666
aS'    Me too lol'
p667
aI7
aa(lp668
V544764078594330625
p669
aS'     Me too lol\n\n'
p670
aI26
aa(lp671
V544470819057852416
p672
aS'    err Typhoon Hadley an intermediary???? lol collapses on floor with laughter......'
p673
aI7
aa(lp674
V544473677069156352
p675
aS"    \n\nYes, Whale's Teeth Hadley is as diplomatic a thug as ever bashed a 17 year old."
p676
aI28
aa(lp677
V544469062323933184
p678
aS"  from the scuttlebutt I am hearing, what he didn't put to air makes him fascinating intermediary! Still, he has blown hard"
p679
aI6
aa(lp680
V544471340887982081
p681
aS"Gee that's a conundrum.    Ray Hadley Genuine intermediary or opportunistic blowhard?"
p682
aI6
aa(lp683
V544472273608908800
p684
aS"   he doesn't need the ratings he's number 1 by a mile"
p685
aI6
aa(lp686
V544470682331914240
p687
aS' NotASausage'
p688
aI0
aaa(lp689
(lp690
V544382892378714113
p691
aS'Five Hostages Escape Sydney Cafe Siege  Live Updates From   '
p692
aI0
aa(lp693
V544402000427769857
p694
aS"   this really saddens me. Why can't people just get along? Those people are innocent"
p695
aI0
aa(lp696
V544403194991099904
p697
aS' Five Hostages Escape Sydney Cafe Siege  Live Updates From   '
p698
aI0
aa(lp699
V544383566696566784
p700
aS"  she's kinda cute considering she's all scared out of her mind and all."
p701
aI0
aa(lp702
V544485052198158336
p703
aS"    Is she an actress? This photo makes my conspiracy senses tingle...ya' know?"
p704
aI3
aa(lp705
V544543993040601088
p706
aS'   .lol.....anything is possible.'
p707
aI4
aa(lp708
V544405715981307904
p709
aS' '
p710
aI0
aa(lp711
V544413294430547968
p712
aS'Whoa die vine. RT  Five Hostages Escape Sydney Cafe Siege  '
p713
aI0
aa(lp714
V544411279776313344
p715
aS'Gelukkig!  5 Hostages Escape Sydney Cafe Siege  Live Updates From   '
p716
aI0
aaa(lp717
(lp718
V544512676643500033
p719
aS'BREAKING   freed hostage borne high from sydneysiege w/c.4 paramedic teams on the scene  ( carsonscottLI'
p720
aI0
aa(lp721
V544522331939274752
p722
aS'  you guys had the slowest report commentary in the world. Worst coverage of such a important part in our history :('
p723
aI0
aa(lp724
V544513541865095168
p725
aS' BREAKIN freed hostage borne high from sydneysiege w/c.4 paramedic teams on the scene '
p726
aI0
aa(lp727
V544514837301043200
p728
aS'  Why was this mongrel on bail? '
p729
aI0
aaa(lp730
(lp731
V544513524438155264
p732
aS'Sydney siege: police enter cafe as hostages flee the scene, gunfire heard, reports of an injured person  live '
p733
aI0
aa(lp734
V544513980195430400
p735
aS' thanks so much for sharing. Just added it here:  '
p736
aI0
aa(lp737
V544514197665492994
p738
aS'  illridewithyou all the way from Pakistan'
p739
aI0
aaa(lp740
(lp741
V544310853613281281
p742
aS'The Sydney cafe siege may be part of a larger plot.  MartinPlaceSiege  '
p743
aI0
aa(lp744
V544323119138103296
p745
aS'   Yes, a red herring, or a feint...'
p746
aI0
aa(lp747
V544322375144472576
p748
aS'.   Duh, of course it\'s "part of a larger plot", Islamic terrorists hate ppl of all religions'
p749
aI0
aa(lp750
V544350295770558465
p751
aS'  in sure Obama will tell us just workplaceviolence'
p752
aI0
aa(lp753
V544311848615432194
p754
aS' The Sydney cafe siege may be part of a larger plot.  MartinPlaceSiege  '
p755
aI0
aa(lp756
V544350274308284416
p757
aS'   Yes, it\'s called "Islam."'
p758
aI0
aa(lp759
V544320787436433409
p760
aS'  Stick to the facts and stop trying to scare thr australian puplic!'
p761
aI0
aa(lp762
V544355074672033792
p763
aS'   their entire coverage has been a joke. See the uni professor explain hypotheticals in hostage situations?'
p764
aI6
aa(lp765
V544322660529078273
p766
aS'Yes: \nNote: unconfirmed\n  \n  '
p767
aI0
aa(lp768
V544312583746899970
p769
aS'   The Flag has arabic writing on it not Islamic writing.'
p770
aI0
aa(lp771
V544328661806366721
p772
aS'   '
p773
aI0
aa(lp774
V544318876255653888
p775
aS"  \nUnless you've got evidence of this...shut it. \n\nSick to death of my emotions being manipulated for money. \nparasites"
p776
aI0
aa(lp777
V544322736806711296
p778
aS'RT  The Sydney cafe siege may be part of a larger plot. MartinPlaceSiege  '
p779
aI0
aa(lp780
V544323425993371649
p781
aS'   please dont scare people by speculating whats gonna happen.. My prayers to all the people taken hostaged.. :('
p782
aI0
aa(lp783
V544323742004813824
p784
aS'  your coverage is shameful , stick to the facts ...'
p785
aI0
aa(lp786
V544312995544039426
p787
aS"   Surprised that Kochie's not there giving his expert opinion. Or even offering himself as an intermediary"
p788
aI0
aa(lp789
V544313637318307840
p790
aS'   He could pull another Beaconsfield!'
p791
aI15
aa(lp792
V544314470793613313
p793
aS'    But Doyle coming up! Ugh!'
p794
aI15
aa(lp795
V544315647182651392
p796
aS"    She'll repeat every thing as if we're all stupid."
p797
aI17
aa(lp798
V544350222194053120
p799
aS' The Sydney cafe siege may be part of a larger plot.  MartinPlaceSiege  '
p800
aI0
aaa(lp801
(lp802
V544292129972170752
p803
aS'BREAKING ALERT: Preliminary reports indicate perpetrators appear to be members of ISIS. SydneySiege'
p804
aI0
aa(lp805
V544292264403820544
p806
aS' BREAKING ALERT: Preliminary reports indicate perpetrators appear to be members of ISIS. SydneySiege wonderful.'
p807
aI0
aa(lp808
V544292970074087424
p809
aS' no.'
p810
aI0
aa(lp811
V544292377897488384
p812
aS' ISIS flag supposedly put in window.'
p813
aI0
aa(lp814
V544292581950357504
p815
aS'  not an Isis flag. Just an Islamic one. Stop spreading false rumors.'
p816
aI3
aa(lp817
V544293062776995840
p818
aS'  Just read some Aussie news report so NOT spreading rumors. Grow up Nick.'
p819
aI4
aa(lp820
V544296770420105216
p821
aS'  Interesting, because the Guardian says different. '
p822
aI5
aa(lp823
V544296994676965376
p824
aS'  The Shahada is not a "group."  Basic googling skills help. Misinfo doesn\'t.'
p825
aI6
aa(lp826
V544297777266954240
p827
aS'   Shahada on a black flag is a general Jihad flag that Al Qaeda/Al Nusra etc.. use.'
p828
aI7
aa(lp829
V544298065260466176
p830
aS'   Sure. But to link to ISIS is factually inaccurate and irresponsible.'
p831
aI8
aa(lp832
V544298397034086400
p833
aS"   What if it's Lone wolf? Immediately giving credit without fact checking favors them."
p834
aI9
aa(lp835
V544298830494441473
p836
aS'   Does it actually matter?'
p837
aI10
aa(lp838
V544298416571179008
p839
aS'   Agreed, I have been pointing this out btw ;)'
p840
aI4
aa(lp841
V544295054723268608
p842
aS' BREAKING ALERT: Preliminary reports indicate perpetrators appear to be members of ISIS. SydneySiege well this is good'
p843
aI0
aa(lp844
V544292316253396993
p845
aS' not Isis, another group'
p846
aI0
aaa(lp847
(lp848
V544367462012432384
p849
aS'MORE: Police confirm 3 hostages escape Sydney cafe, unknown number remain inside  Sydneysiege'
p850
aI0
aa(lp851
V544371506261012480
p852
aS' MORE: Police confirm 3 hostages escape Sydney cafe, unknown number remain  Sydneysiege MartinPlace'
p853
aI0
aa(lp854
V544371998390890496
p855
aS"  and yet they won't cover it like the foreign media."
p856
aI1
aa(lp857
V544369805298372608
p858
aS' Receiving news from '
p859
aI0
aa(lp860
V544369608392577024
p861
aS' I wonder if other terrorist are gonna help the gunman escape after all this... better be on the look out for other terrorist'
p862
aI0
aa(lp863
V544371715770695680
p864
aS' MORE: Police confirm 3 hostages escape Sydney cafe, unknown number remain inside  Sydneysiege'
p865
aI0
aa(lp866
V544371075304288256
p867
aS' cc '
p868
aI0
aa(lp869
V544368679425957890
p870
aS' Thoughts and prayers are with the hostages. '
p871
aI0
aa(lp872
V544368900797124608
p873
aS' hope the baddies dont have social media or theyre gonna start locking the side doors people escaped from.'
p874
aI0
aa(lp875
V544369031214428160
p876
aS' the only way they gonna survive is if they convert to Isis'
p877
aI0
aa(lp878
V544368047956299777
p879
aS' Thoughts with 27 hostages and their families and prayers for good news to emerge soon'
p880
aI0
aa(lp881
V544370150359572480
p882
aS' Not cool Yo! My Prayerz hope that hostages make it out safe'
p883
aI0
aaa(lp884
(lp885
V544297696308518912
p886
aS'UPDATE: 13 people being held hostage in Sydney shop, Opera House evacuated after suspicious package found: reports '
p887
aI0
aa(lp888
V544299651005181953
p889
aS" This would happen more often if it wasn't for the fine work from the CIA. sydneysiege"
p890
aI0
aa(lp891
V544298252078559232
p892
aS' child it was so cold in san fran when they beamed in their holograms called it off too cold they said and back they went went went'
p893
aI0
aa(lp894
V544298332005613569
p895
aS' Sending prayers.'
p896
aI0
aa(lp897
V544301597170233344
p898
aS' why is this not breaking news!!!!! Come on fox'
p899
aI0
aa(lp900
V544300001568911360
p901
aS' While Bashar al-Assad was killing over 200000 people World Leaders just sat there twidling their thumbs. lslamicVolcano Eruption'
p902
aI0
aa(lp903
V544300652479127552
p904
aS'\nDept. Of Corrections\nOfficer DAVID PRICE\nSt Louis KKK member\nOpKKK HoodsOff\n. '
p905
aI0
aa(lp906
V544300106212577280
p907
aS' \nSTL Dept. Of Corrections \nOff. ADAM JINKERSON\nActive Member KKK\nOpKKK HoodsOff\n. '
p908
aI0
aa(lp909
V544298113696292864
p910
aS' get off of Huckabee! Bring in '
p911
aI0
aa(lp912
V544298946441392128
p913
aS'   Go to BITV THEIR LIVE IN SYDNEY!!'
p914
aI8
aa(lp915
V544660449669967872
p916
aS'  '
p917
aI8
aa(lp918
V544299197336678400
p919
aS'    Get live in Sydney'
p920
aI0
aa(lp921
V544299543899435008
p922
aS' If this is being done by a terrorist group with ties to another foreign nation, that foreign nation needs to be blown up.'
p923
aI0
aa(lp924
V544299940764479490
p925
aS' We that respect freedom and property ownership (not the leftist by the way), need to make a final statement to these idiots'
p926
aI12
aa(lp927
V544300909035937793
p928
aS' Thanks Diane Feinstein and Obama for releasing our CIA report. Now ISIS is more bolden.'
p929
aI0
aa(lp930
V544331064379203587
p931
aS'  has nothing to do with what ISIS or Al Queda will do in the future. They laugh AMERICANS are such pussies &amp; whining'
p932
aI14
aa(lp933
V544298894637940736
p934
aS' apparently the religion of peace is peacefully taking hostages for peaceful murder.'
p935
aI0
aa(lp936
V544298844737916928
p937
aS' UPDATE: 13 people being held hostage in Sydney shop, Opera House evacuated after suspicious package found: reports Are you sure?'
p938
aI0
aa(lp939
V544313083783421953
p940
aS'  yep SydneySiege'
p941
aI17
aa(lp942
V544297846233890816
p943
aS' And Huck is on'
p944
aI0
aa(lp945
V544298655336136704
p946
aS' Cover the damn story.'
p947
aI0
aa(lp948
V544299321811017729
p949
aS' why are you not airing the situation in Sydney ?'
p950
aI0
aa(lp951
V544313211474804736
p952
aS'  my thoughts exactly !'
p953
aI21
aa(lp954
V544301353976467457
p955
aS' only just decided to air this have you?? Jeez'
p956
aI0
aaa(lp957
(lp958
V544520042810200064
p959
aS'sydneysiege is over. 2 confirmed dead, PrayForSydney PrayForSydneyHostages Sydney hostages'
p960
aI0
aa(lp961
V544521244021112832
p962
aS' Hey Tim was up'
p963
aI0
aa(lp964
V544523668873687042
p965
aS'No. Please no.  sydneysiege is over. 2 confirmed dead, PrayForSydney PrayForSydneyHostages Sydney hostages'
p966
aI0
aaa(lp967
(lp968
V544329935943237632
p969
aS'Uber Sydney trips from CBD will be free for riders. Higher rates are still in place to encourage drivers to get into the CBD.'
p970
aI0
aa(lp971
V544331336266579969
p972
aS' what does this mean?'
p973
aI0
aa(lp974
V544347516930514945
p975
aS' Uber is covering the cost of all rides. '
p976
aI1
aa(lp977
V544349014255472640
p978
aS' thx.'
p979
aI2
aa(lp980
V544330593228840961
p981
aS" that's like the most confusing statement ever. The social media department of Uber Sydney is high or something?"
p982
aI0
aa(lp983
V544346925118394368
p984
aS' Uber trips out of the CBD today are free to help Sydneysiders get home safely. See '
p985
aI4
aa(lp986
V544340392712208384
p987
aS"  I'm baffled by how few of its customers actually know how Uber works."
p988
aI4
aa(lp989
V544331663241908225
p990
aS' reports around the world flooding in of your 400% fare increase in response to a siege situation, smart.'
p991
aI0
aa(lp992
V544347707981041664
p993
aS' Uber trips out of the CBD today are free to help Sydneysiders get home safely. See '
p994
aI7
aa(lp995
V544330406397374465
p996
aS' hikes prices during the sydneysiege. How is that helping? Giving away free rides would help.'
p997
aI0
aa(lp998
V544334052526784512
p999
aS"  you're aware that this tweet ...is giving away free rides, right?"
p1000
aI9
aa(lp1001
V544346902439809024
p1002
aS' Uber trips out of the CBD today are free to help Sydneysiders get home safely. See '
p1003
aI9
aa(lp1004
V544348155752370177
p1005
aS'  Uber trips out of the CBD today are free to help Sydneysiders get home safely. See '
p1006
aI11
aa(lp1007
V544331106581897216
p1008
aS" who's paying then?"
p1009
aI0
aa(lp1010
V544336079877595136
p1011
aS'  Uber is.'
p1012
aI13
aa(lp1013
V544337315124875264
p1014
aS"  didn't make it very clear in the beginning."
p1015
aI14
aa(lp1016
V544347330166530049
p1017
aS' Uber is covering the cost of all rides.'
p1018
aI13
aa(lp1019
V544330709918183425
p1020
aS' you really gotta stop the swarm model or at least have someone actually look at WHY an area is swarming.'
p1021
aI0
aa(lp1022
V544330821365014529
p1023
aS'  so is uber paying for the rides paying the drivers?'
p1024
aI0
aa(lp1025
V544333969970302977
p1026
aS'.   Seems. A global marketing disaster Uber is trying to fix.'
p1027
aI18
aa(lp1028
V544341800719106049
p1029
aS' for sure'
p1030
aI19
aa(lp1031
V544347216282791936
p1032
aS'  Uber trips out of the CBD today are free to help Sydneysiders get home safely. See '
p1033
aI18
aa(lp1034
V544347456238931968
p1035
aS'  Thank you!'
p1036
aI21
aa(lp1037
V544349518532079616
p1038
aS'  Thanks uber! I got everyone here at work now downloading your app :)'
p1039
aI21
aa(lp1040
V544438433410592768
p1041
aS' Thanks for the free ride home today. I felt very safe and got home efficiently.'
p1042
aI21
aa(lp1043
V544347055754199040
p1044
aS'  Uber is covering the cost of all rides.'
p1045
aI18
aa(lp1046
V544347329416151040
p1047
aS' What is the wait time for a ride out of the Sydney CBD?  '
p1048
aI25
aa(lp1049
V544330529529548801
p1050
aS' thank you for fixing this situation.'
p1051
aI0
aa(lp1052
V544341977248956417
p1053
aS"  It is an illegal bloody service. Why don't you thank regular taxi drivers?\nEncouraging theft are we?"
p1054
aI27
aa(lp1055
V544330751991230465
p1056
aS' how about paying your drivers extra to go into the cbd instead of forcing others to pay extra to travel into potential danger?'
p1057
aI0
aa(lp1058
V544333288249118720
p1059
aS'  What do you pay your drivers?'
p1060
aI29
aa(lp1061
V544341043764686849
p1062
aS"  for the transport service I don't run? Excellent point sir. If they wanted to save money, they should've kept quiet."
p1063
aI30
aa(lp1064
V544342839111327744
p1065
aS'  That is the point, dummy. Lots of drivers signing up for Uber. They are smarter than you. So help out and shut it'
p1066
aI31
aa(lp1067
V544344771796295680
p1068
aS"  how about you fuck off back to your corner of the internet where your opinion matters and I'll do the same."
p1069
aI32
aa(lp1070
V544345218992963584
p1071
aS"  Man, you're dumb. Sorry for saying anything,  dummy."
p1072
aI33
aa(lp1073
V544343890086469632
p1074
aS"  wow, what an asinine remark. They went for a PR scoop and fucked it, now they're scrambling to fix it. Seems smart"
p1075
aI32
aa(lp1076
V544353316998631424
p1077
aS'  surge pricing is automated. When we became aware of the situation we capped surge pricing and made rides free for riders.'
p1078
aI35
aa(lp1079
V544345414670249985
p1080
aS". No, they presumed their customers weren't economic illiterates. They presumed wrong.   "
p1081
aI35
aa(lp1082
V544348059501490177
p1083
aS"   FWIW I think they're communicating fine now, that initial tweet was a grenade they should've rewritten."
p1084
aI37
aa(lp1085
V544348620930433024
p1086
aS'. That initial tweet was on point. Their customers, and the outraged, should have been smarter. '
p1087
aI38
aa(lp1088
V544345919575949312
p1089
aS'    Being literate in economics is out of favor these days. Bad for politics.'
p1090
aI37
aa(lp1091
V544347461976727552
p1092
aS'  still looks like a PR issue to me, look at the backlash. Never assume the customer has same knowledge you do .'
p1093
aI37
aa(lp1094
V544344866285576193
p1095
aS'  Listen up dum-dum.  They ARE paying the drivers more. Reading is a skill.'
p1096
aI35
aa(lp1097
V544348986484613120
p1098
aS'  Uber is covering the cost of all rides, Uber is still paying drivers higher fares to encourage them to pickup riders.'
p1099
aI30
aa(lp1100
V544349254706155520
p1101
aS'  Yeah, I got that. Thank you for your great service.'
p1102
aI43
aa(lp1103
V544346998975897600
p1104
aS' Uber trips out of the CBD today are free to help Sydneysiders get home safely. See '
p1105
aI29
aa(lp1106
V544348196793630720
p1107
aS" brilliant, thanks for the reply. I'll share the link"
p1108
aI45
aa(lp1109
V544330596198019073
p1110
aS' Trying to get in contact, anyone at the phones?'
p1111
aI0
aa(lp1112
V544339277749182464
p1113
aS'. No, you refused to pay for them to be at the phones. Enjoy your walk. '
p1114
aI47
aa(lp1115
V544352643242409984
p1116
aS'  Uber is covering the cost of all rides, Uber is still paying drivers higher fares to encourage them to pickup rides'
p1117
aI48
aa(lp1118
V544353280265293824
p1119
aS" Yes, that's excellent. What is the wait time for a ride out of the Sydney CBD right now? Are rides available right now?"
p1120
aI49
aa(lp1121
V544346961097138176
p1122
aS' Uber trips out of the CBD today are free to help Sydneysiders get home safely. See '
p1123
aI47
aa(lp1124
V544347172024508417
p1125
aS' what do you define as CBD? Where does the boundary end?'
p1126
aI51
aa(lp1127
V544331615812345856
p1128
aS' so free or surge pricing? confused'
p1129
aI0
aa(lp1130
V544336306437128192
p1131
aS'  the surge rates are to draw the drivers there (uber will pay the cost). No fee to passengers.'
p1132
aI53
aa(lp1133
V544336896256512000
p1134
aS'  Ah that makes sense then thanks'
p1135
aI54
aa(lp1136
V544425098321874944
p1137
aS'   cut the BS they wanted to surge price now back tracking  '
p1138
aI55
aa(lp1139
V544425456351854592
p1140
aS'     '
p1141
aI56
aa(lp1142
V544347670630785026
p1143
aS' Uber is covering the cost of all rides. '
p1144
aI53
aa(lp1145
V544331338317565953
p1146
aS"that's better RT  Uber Sydney trips from CBD will be free for riders. Higher rates still in place to encourage drivers"
p1147
aI0
aa(lp1148
V544331632086224898
p1149
aS"wait, does 'higher rate' mean what  is paying drivers? clarification"
p1150
aI59
aa(lp1151
V544347802428399616
p1152
aS' Uber is covering the cost of all rides, drivers will still receive higher rates from Uber '
p1153
aI60
aa(lp1154
V544331790253428738
p1155
aS"  Yeah I think so. They're getting $100+, riders aren't wearing diff. Good gesture. Poor message transmission"
p1156
aI60
aa(lp1157
V544332086937546752
p1158
aS' initial message did imply that riders can cop hike. Much better. '
p1159
aI62
aa(lp1160
V544347846363738112
p1161
aS'  Uber trips out of the CBD today are free to help Sydneysiders get home safely. See '
p1162
aI62
aa(lp1163
V544348100165263360
p1164
aS'   Faster backflip than Tony Abbott!'
p1165
aI64
aa(lp1166
V544348496728309760
p1167
aS"   at least they're righting a wrong. I'll grant them that."
p1168
aI65
aa(lp1169
V544364150319611904
p1170
aS'   surge pricing is automated. When we became aware of the situation we capped surge &amp; made trips free.'
p1171
aI65
aa(lp1172
V544372250430803969
p1173
aS'  when you first became aware of the situation you tweeted that prices will increase.'
p1174
aI67
aa(lp1175
V544375845402341377
p1176
aS'  Uber is covering the cost of all rides, Uber is still paying drivers higher fares to encourage them to do pickups'
p1177
aI68
aa(lp1178
V544379605818159104
p1179
aS'  '
p1180
aI69
aa(lp1181
V544421367945236480
p1182
aS'  Yeah...too late'
p1183
aI69
aa(lp1184
V544364547574726656
p1185
aS"    Well that's not true. First, you tweeted an explanation about why you were gouging customers."
p1186
aI67
aa(lp1187
V544366214105952256
p1188
aS" I still have some misgiving re  &amp; earlier comm was confusing, but IMO they're trying.  "
p1189
aI72
aa(lp1190
V544354334348029952
p1191
aS'  Uber is covering the cost of all rides, Uber is still paying drivers higher fares to encourage them to pickup riders.'
p1192
aI62
aa(lp1193
V544330922288373760
p1194
aS' So are rides free or more expensive? Your tweet is very unclear'
p1195
aI0
aa(lp1196
V544334594531524608
p1197
aS"  Glad I'm not the only one who's confused ..."
p1198
aI75
aa(lp1199
V544350417623068672
p1200
aS'  Uber is covering the cost of all rides, Uber is still paying drivers higher fares to encourage them to pickup rides'
p1201
aI76
aa(lp1202
V544347250206310400
p1203
aS' Uber trips out of the CBD today are free to help Sydneysiders get home safely. See '
p1204
aI75
aa(lp1205
V544350540717494272
p1206
aS' Thanks :)'
p1207
aI78
aa(lp1208
V544339866050248704
p1209
aS' The rides are free.  will be paying the drivers the increased rate out of their own pocket.'
p1210
aI75
aa(lp1211
V544330807964217345
p1212
aS' swarming because of a concert or event? Fine. Swarming during a hostage crisis? NOT COOL.'
p1213
aI0
aa(lp1214
V544331153994297344
p1215
aS'  calm down its one cafe.'
p1216
aI81
aa(lp1217
V544331421494423552
p1218
aS" it's still raising prices when people are trying to leave the CBD in a crisis. At least they've made rides free now"
p1219
aI82
aa(lp1220
V544331611081162753
p1221
aS' is public transport free?'
p1222
aI83
aa(lp1223
V544331906469203968
p1224
aS' nope. I respect them for making the rides free, I can also see how they wanted to get more drivers in'
p1225
aI84
aa(lp1226
V544332284812218368
p1227
aS" so our GOVERNMENT is making money from people trying to get out of a hostage situation but you don't shout and yell at them..."
p1228
aI85
aa(lp1229
V544332423563984897
p1230
aS' but you do Uber for trying to increase drivers. My work here is done your honour.'
p1231
aI86
aa(lp1232
V544334683090083840
p1233
aS".  Every taxi can take a M40 $30 discount voucher. But then guber isn't public transport."
p1234
aI84
aa(lp1235
V544337579143737344
p1236
aS'  no idea what you mean?'
p1237
aI88
aa(lp1238
V544337927132569601
p1239
aS"  Taxis all offer $30 discount to disabled passengers, uber doesnt even have disabled taxis to offer. That's true PT"
p1240
aI89
aa(lp1241
V544339466265972736
p1242
aS" don't know if your being sarcastic or going of topic"
p1243
aI90
aa(lp1244
V544339757195489281
p1245
aS" You called uber public transport, it's not. PT is for everyone not just the elite."
p1246
aI91
aa(lp1247
V544340358717382656
p1248
aS" I never called uber PT. Everyone is having a go at Uber but not PT... We own it,we shouldn't have to pay in desperate times"
p1249
aI92
aa(lp1250
V544341522213134336
p1251
aS" U don't pay extra for PT at desperate . My apologies if I got the issue confused. I agree PT for everyone regardless of class."
p1252
aI93
aa(lp1253
V544341897712377856
p1254
aS' people expect Uber drivers to work for normal/free in "crisis times" but when Uber increases prices 2 get more drivers than'
p1255
aI94
aa(lp1256
V544342076112904193
p1257
aS' everyone cries how bad it is... Yet public transport is still usual price and no one is whining at them.'
p1258
aI95
aa(lp1259
V544342707242414080
p1260
aS' I see your point. Maybe  should make transport free from the CBD today.'
p1261
aI96
aa(lp1262
V544342570151579650
p1263
aS' Same people pro do sweet all but moan on social media about how terrible everyone else is.. And yes irony burning my end.'
p1264
aI96
aa(lp1265
V544343462829494272
p1266
aS" I'm kinda new to (active) twitter but I can see the praises of a knee jerk reaction. It highlights the collective mind issues."
p1267
aI98
aa(lp1268
V544342975044534272
p1269
aS" This is a ubers drivers forum, not sponsored by uber. Read what it's like in a mature uber market. "
p1270
aI96
aa(lp1271
V544350806300848129
p1272
aS'   Uber is covering the cost of all rides, Uber is paying drivers higher fares to get into the CBD.'
p1273
aI88
aa(lp1274
V544351211403505666
p1275
aS'   Only after worldwide backlash. Kinda like getting your hand caught in the cookie jar. amirite ?'
p1276
aI101
aaa(lp1277
(lp1278
V544358564484378624
p1279
aS'Police: Negotiators are now in contact with armed hostage-taker in Sydney situation; motive remains unknown - '
p1280
aI0
aa(lp1281
V544358949399851008
p1282
aS'RT  Police: Negotiators are now in contact w/ armed hostage-taker in Sydney situation; motive remains unknown - '
p1283
aI0
aa(lp1284
V544369484019281921
p1285
aS" Really?  The motive is unknown?  Does the flag in the window provide any possible clue?  Do you employ the world's worst reporters?"
p1286
aI0
aaa(lp1287
(lp1288
V544282227035869184
p1289
aS'BREAKING NEWS: Gunmen take hostages at Sydney cafe, wave Islamic flag  '
p1290
aI0
aa(lp1291
V544282548197916672
p1292
aS' I want some lindt chocolates now'
p1293
aI0
aa(lp1294
V544282441091788801
p1295
aS' flag remains unidentified.'
p1296
aI0
aa(lp1297
V544283521842708480
p1298
aS' BREAKING NEWS: Gunmen take hostages at Sydney cafe, wave Islamic flag  '
p1299
aI0
aa(lp1300
V544284106436403200
p1301
aS'Smfh RT  BREAKING NEWS: Gunmen take hostages at Sydney cafe, wave Islamic flag  '
p1302
aI0
aa(lp1303
V544284075721494528
p1304
aS' BREAKING NEWS: Gunmen take hostages at Sydney cafe, wave Islamic flag  '
p1305
aI0
aa(lp1306
V544284083757805568
p1307
aS" that's not the Islamic flag..."
p1308
aI0
aa(lp1309
V544282322779250688
p1310
aS' not the Islamic flag.....'
p1311
aI0
aa(lp1312
V544283586111619072
p1313
aS' Bring the  get that bastard'
p1314
aI0
aa(lp1315
V544284128615473152
p1316
aS'  wtf fuk u Islamic state suck my dick with bacon wrapped around it'
p1317
aI0
aa(lp1318
V544283734044721152
p1319
aS'BREAKING NEWS: Gunmen take hostages at Sydney cafe, wave Islamic flag   via '
p1320
aI0
aa(lp1321
V544282464462860288
p1322
aS' BREAKING NEWS: Gunmen take hostages at Sydney cafe, wave Islamic flag   smhhhh'
p1323
aI0
aa(lp1324
V544282563603628032
p1325
aS' BREAKING NEWS: Gunmen take hostages at Sydney cafe, wave Islamic flag   well fuck'
p1326
aI0
aaa(lp1327
(lp1328
V544517264054423552
p1329
aS'BREAKING: Police have confirmed that the SydneySiege is over. 9News'
p1330
aI0
aa(lp1331
V544518038402252800
p1332
aS' BREAKING: Police have confirmed that the SydneySiege is over. 9News thank god thank god thank you thank you thank you'
p1333
aI0
aa(lp1334
V544517542233268224
p1335
aS' BREAKING: Police have confirmed that the SydneySiege is over. 9Newsthank GOD'
p1336
aI0
aa(lp1337
V544517721862725632
p1338
aS' BREAKING: Police have confirmed that the SydneySiege is over. 9News  good job australia, hope they all are okay'
p1339
aI0
aa(lp1340
V544517506665172992
p1341
aS' BREAKING: Police have confirmed that the SydneySiege is over. 9News Thank god... Shoutout to all the police that saved us'
p1342
aI0
aa(lp1343
V544517684797267969
p1344
aS' YES'
p1345
aI0
aa(lp1346
V544518182631768064
p1347
aS' THANK GOODNESS'
p1348
aI0
aa(lp1349
V544517911809761281
p1350
aS' BREAKING: Police have confirmed that the SydneySiege is over. 9News I would not only like to thank God, but those policemen'
p1351
aI0
aa(lp1352
V544517659174240256
p1353
aS' BREAKING: Police have confirmed that the SydneySiege is over. 9News best news'
p1354
aI0
aa(lp1355
V544517553427865601
p1356
aS' BREAKING: Police have confirmed that the SydneySiege is over. 9News so glad to hear, this was unreal!'
p1357
aI0
aa(lp1358
V544518122339049472
p1359
aS' THANKS GOD'
p1360
aI0
aa(lp1361
V544517545873530882
p1362
aS' What a relief! Glad everyone is mostly ok!'
p1363
aI0
aa(lp1364
V544517398410166272
p1365
aS' BREAKING: Police have confirmed that the SydneySiege is over. 9News thank God '
p1366
aI0
aa(lp1367
V544517442781716481
p1368
aS' good'
p1369
aI0
aaa(lp1370
(lp1371
V544282005941530624
p1372
aS'Hostages in Sydney cafe made to hold up Islamic flags '
p1373
aI0
aa(lp1374
V544299767195779072
p1375
aS" don't they have strict gun laws in Australia?  I see that's working well."
p1376
aI0
aa(lp1377
V544297184712085504
p1378
aS' THIS IS THE GUY WHO SUED THE CITY OF SYDNEY AUS FOR BUILDING THE SIDEWALKS TO CLOSE TO HIS SHOULDER name MIDGET AHSEEEUM HES COMMMIN'
p1379
aI0
aa(lp1380
V544282429583003648
p1381
aS' kill all ISIS kill them all kill their families and kill all their love ones make them feel the pain'
p1382
aI0
aa(lp1383
V544287292538769409
p1384
aS"  Hillary Clinton would want us to empathize with them and figure out why they're so peevish. Hillary2016"
p1385
aI3
aa(lp1386
V544289223244013568
p1387
aS'  we can send hillary to talk to death ISIS and watch ISIS riddle her body with bullets and chop her head off'
p1388
aI4
aa(lp1389
V544293212996001792
p1390
aS'  That might be a bit much, no?'
p1391
aI5
aa(lp1392
V544293500398088192
p1393
aS'  nope. People like her and obama have weakened this country with weak ass foreign policy and made all of us targets'
p1394
aI6
aa(lp1395
V544300933455548417
p1396
aS' proves islam is scary'
p1397
aI0
aa(lp1398
V544294946371403776
p1399
aS' The Islamic Volcano promised by al-Baghdadi has erupted.'
p1400
aI0
aa(lp1401
V544303259473571840
p1402
aS' Hostages in Sydney cafe made to hold up Islamic flags \n\n  \n\nReligion is a good thing in small doses!'
p1403
aI0
aa(lp1404
V544283669394120704
p1405
aS' lets talk to them in hushed tones'
p1406
aI0
aa(lp1407
V544297460936753152
p1408
aS' Pigs'
p1409
aI0
aa(lp1410
V544333770900242432
p1411
aS'RT  Hostages in Sydney cafe made to hold up Islamic flags  Australia Islam sharia'
p1412
aI0
aa(lp1413
V544288116199407616
p1414
aS" Obama JV team making noise? What's up with that Barry?"
p1415
aI0
aaa(lp1416
(lp1417
V544291965513134080
p1418
aS'According to Seven, this is a picture of the gunman '
p1419
aI0
aa(lp1420
V544293748377518080
p1421
aS'   You are a danger to the rest of society. Stop posting pics without any verification &amp; creating panic.'
p1422
aI0
aa(lp1423
V544292545690222592
p1424
aS"  FFS, have you got a clue? There are people's lives at stake."
p1425
aI0
aa(lp1426
V544294012262174720
p1427
aS' '
p1428
aI0
aa(lp1429
V544293240669622272
p1430
aS' looks like a little green man!'
p1431
aI0
aa(lp1432
V544293668513792000
p1433
aS" Sure hope it's not just some dude and that you've not just pulled a Fairfax. Beginning to see why you were sent back to uni."
p1434
aI0
aa(lp1435
V544293179537625088
p1436
aS' Stupid. Media learnt nothing from Boston.'
p1437
aI0
aa(lp1438
V544297640423587840
p1439
aS'  We learnt a lot from Boston nothing happened.'
p1440
aI6
aa(lp1441
V544292184476758016
p1442
aS'What is wrong with you '
p1443
aI0
aa(lp1444
V544292117527289856
p1445
aS'  looks like a bikie'
p1446
aI0
aa(lp1447
V544292691928838144
p1448
aS'. Your stupidity is beyond belief. Just stop if you are capable of that.'
p1449
aI0
aa(lp1450
V544297280845541376
p1451
aS"  there is stupid and there is Markson's stupidity which is on another planet altogether"
p1452
aI10
aa(lp1453
V544293930087366657
p1454
aS'  She is SOOOOO Stupid that she is completely incapable of realising it.'
p1455
aI10
aa(lp1456
V544295739644342272
p1457
aS"   It's called Dunning-Kruger effect. "
p1458
aI12
aa(lp1459
V544294284015329280
p1460
aS"   I'm not watching it, but it sounds as if it is being treated as sport."
p1461
aI12
aa(lp1462
V544293426259189761
p1463
aS' who do you think youre informing?'
p1464
aI0
aa(lp1465
V544294084295147520
p1466
aS" Yeah, Murdoch witch, shut up and watch the blinking lights. You're not a journo, so don't journalise."
p1467
aI0
aa(lp1468
V544292543723089920
p1469
aS'. Police have asked all on social media to desist publishing anything FHS'
p1470
aI0
aa(lp1471
V544292863471677440
p1472
aS'  dad?'
p1473
aI0
aa(lp1474
V544292535565180928
p1475
aS'  if you can have a photo of this bloke then just snipe him in the head. GameOver'
p1476
aI0
aa(lp1477
V544294686437814272
p1478
aS"   there's 2 of them though"
p1479
aI19
aa(lp1480
V544295313456902144
p1481
aS' exactly what i was thinking'
p1482
aI19
aa(lp1483
V544293730455269376
p1484
aS'   put a bullet in the wankers head'
p1485
aI19
aa(lp1486
V544293007391207425
p1487
aS' According to Seven, this is a picture of the gunman  - no idea how true this is but fascinating'
p1488
aI0
aaa(lp1489
(lp1490
V544283772569788416
p1491
aS'Live Updates: Siege in Sydney Cafe '
p1492
aI0
aa(lp1493
V544284536570662914
p1494
aS' or are they simply waiting to be served'
p1495
aI0
aa(lp1496
V544286591515373569
p1497
aS' bollox!'
p1498
aI0
aa(lp1499
V544297005208846336
p1500
aS' Live Updates: Siege in Sydney Cafe '
p1501
aI0
aa(lp1502
V544316754521239552
p1503
aS' if it isis and there sending a message then this wont end nicely, those scumbags need to be wiped off the face of the planet !!!'
p1504
aI0
aa(lp1505
V544284386993397761
p1506
aS' Live Updates: Siege in Sydney Cafe '
p1507
aI0
aa(lp1508
V544284225357504512
p1509
aS'Fucking Muslims again. '
p1510
aI0
aa(lp1511
V544284571626635266
p1512
aS' Send in the British SAS it will be over within 30mins'
p1513
aI0
aa(lp1514
V544286041155571712
p1515
aS' Live Updates: Siege in Sydney Cafe        '
p1516
aI0
aa(lp1517
V544288050810216448
p1518
aS'  just seen it, jeez :/'
p1519
aI8
aa(lp1520
V544294036463710209
p1521
aS' Live Updates: Siege in Sydney Cafe  Hope they get out, no where is safe anymore!'
p1522
aI0
aa(lp1523
V544284949986439169
p1524
aS' Live Updates: Siege in Sydney Cafe"\n\n&gt; GUESS WHO....That\'s right MUSLIMS\n\n'
p1525
aI0
aa(lp1526
V544284069518147584
p1527
aS' get on with stop messing about'
p1528
aI0
aa(lp1529
V544286226879381504
p1530
aS" Seriously fed up with this. It has to be stopped. Nowhere is safe nowadays. It's Sydney! Australia doesn't need this s**t now too!"
p1531
aI0
aa(lp1532
V544285415814225921
p1533
aS' Thoughts with the folks in there ,for a safe return'
p1534
aI0
aa(lp1535
V544308514811035650
p1536
aS' bloody hell skyscum reporting on something other than dirty yank crap 24hrs a day'
p1537
aI0
aa(lp1538
V544284643605114880
p1539
aS'WTF is going on in the world today?!  Live Updates: Siege in Sydney Cafe  '
p1540
aI0
aa(lp1541
V544306299606151168
p1542
aS' Live Updates: Siege in Sydney Cafe  praying for the hostages xxxxxx'
p1543
aI0
aa(lp1544
V544308203044216832
p1545
aS'  Thats is such a horrible thing to hear praying every one will be ok  ++++'
p1546
aI17
aa(lp1547
V544287943175983104
p1548
aS' Live Updates: Siege in Sydney Cafe '
p1549
aI0
aaa(lp1550
(lp1551
V544358533819420672
p1552
aS'BREAKING: Three hostages appear to have escaped the Sydney cafe where a siege remains ongoing.  sydneyseige'
p1553
aI0
aa(lp1554
V544363266244214784
p1555
aS' BREAKING: Three hostages appear to have escaped the Sydney cafe where a siege remains ongoing.  sydneyseige'
p1556
aI0
aa(lp1557
V544452319904272385
p1558
aS'   O Lord  Save All Hostages in Sydney &amp; Turn Militants 2 Righteous Ways  MSGTheFilm 66'
p1559
aI0
aa(lp1560
V544358641772806144
p1561
aS' For Only $9 You Can Buy 3K Followers '
p1562
aI0
aa(lp1563
V544358715659665408
p1564
aS'  news'
p1565
aI3
aa(lp1566
V544452338619256834
p1567
aS'   O Lord  Save All Hostages in Sydney &amp; Turn Militants 2 Righteous Ways  MSGTheFilm 77'
p1568
aI0
aa(lp1569
V544452279441829888
p1570
aS'   O Lord  Save All Hostages in Sydney &amp; Turn Militants 2 Righteous Ways  MSGTheFilm 44'
p1571
aI0
aa(lp1572
V544390494164615169
p1573
aS' asians. Its imp. He does not want the asians'
p1574
aI0
aa(lp1575
V544452193089503232
p1576
aS'   O Lord  Save All Hostages in Sydney &amp; Turn Militants 2 Righteous Ways  MSGTheFilm 22'
p1577
aI0
aa(lp1578
V544452175754448896
p1579
aS'   O Lord  Save All Hostages in Sydney &amp; Turn Militants 2 Righteous Ways  MSGTheFilm 11'
p1580
aI0
aa(lp1581
V544377622600646657
p1582
aS' is that man holding hostages alone? or they are many?'
p1583
aI0
aa(lp1584
V544419950816161792
p1585
aS' '
p1586
aI0
aa(lp1587
V544452296550383616
p1588
aS'   O Lord  Save All Hostages in Sydney &amp; Turn Militants 2 Righteous Ways  MSGTheFilm 55'
p1589
aI0
aa(lp1590
V544452228632047616
p1591
aS'   O Lord  Save All Hostages in Sydney &amp; Turn Militants 2 Righteous Ways  MSGTheFilm 33'
p1592
aI0
aa(lp1593
V544362985162956800
p1594
aS' BREAKING: Three hostages appear to have escaped the Sydney cafe where a siege remains ongoing.   sydneyseige'
p1595
aI0
aa(lp1596
V544417916796432384
p1597
aS' BREAKING: Three hostages appear to have escaped the Sydney cafe where a siege remains ongoing.  sydneyseige'
p1598
aI0
aa(lp1599
V544452357107761152
p1600
aS'   O Lord  Save All Hostages in Sydney &amp; Turn Militants 2 Righteous Ways  MSGTheFilm 88'
p1601
aI0
aa(lp1602
V544452156422901761
p1603
aS'   O Lord  Save All Hostages in Sydney &amp; Turn Militants 2 Righteous Ways  MSGTheFilm 00'
p1604
aI0
aa(lp1605
V544452378217676800
p1606
aS'   O Lord  Save All Hostages in Sydney &amp; Turn Militants 2 Righteous Ways  MSGTheFilm 99'
p1607
aI0
aaa(lp1608
(lp1609
V544512910538838016
p1610
aS'UPDATE: Hostages fleeing Sydney cafe held by Iranian gunman as explosions, gunshots are heard: '
p1611
aI0
aa(lp1612
V544514368105611264
p1613
aS' any update on PA shooting?'
p1614
aI0
aa(lp1615
V544513540481355777
p1616
aS' I hope the customers get free chocolate for life because of this spineless thugs actions.'
p1617
aI0
aa(lp1618
V544513210490318848
p1619
aS" Looks like it's over."
p1620
aI0
aa(lp1621
V544513179058208769
p1622
aS' Hostages fleeing Sydney cafe held by Iranian gunman as explosions, gunshots are heard:  TurningPoint'
p1623
aI0
aa(lp1624
V544514138186448896
p1625
aS' is it safe anywhere?'
p1626
aI4
aa(lp1627
V544535480684265472
p1628
aS" doesn't seem like it. But people are resilient &amp; again will get through this. Sydneyseige"
p1629
aI5
aa(lp1630
V544516154145132544
p1631
aS" If only we could have got a sniper rifle aimed on his head idiots just don't know how to make things much better."
p1632
aI0
aa(lp1633
V544514838509006849
p1634
aS'  Was he saying "hands up don\'t shoot"? Police overreaction? People are glad the police are there when they are in trouble.'
p1635
aI0
aa(lp1636
V544581202145857536
p1637
aS'  More work place violence!'
p1638
aI0
aa(lp1639
V544514139784478720
p1640
aS' - Just think if they allowed their people to carry guns. He would have been dead 5 minutes after taking hostages.  GunsSaveLives'
p1641
aI0
aa(lp1642
V544513157696589824
p1643
aS' Hopefully they turned him into swiss cheese.'
p1644
aI0
aa(lp1645
V544515366924591104
p1646
aS' I hope they kill him'
p1647
aI0
aa(lp1648
V544527371252944898
p1649
aS' religion of peace.'
p1650
aI0
aa(lp1651
V544514154485534721
p1652
aS" Let's Go Aussies! Send that dude to HELL"
p1653
aI0
aaa(lp1654
(lp1655
V544314234541469696
p1656
aS'Uber intros surge pricing in downtown Sydney during hostage siege  '
p1657
aI0
aa(lp1658
V544315030632538112
p1659
aS'Way uncool,  RT Uber intros surge pricing in downtown Sydney during hostage siege '
p1660
aI0
aa(lp1661
V544315413862301697
p1662
aS" They just don't care. I hope you &amp; yours are all safe."
p1663
aI1
aa(lp1664
V544314805021331456
p1665
aS'Even vultures have to eat. RT  Uber intros surge pricing in Sydney during hostage siege '
p1666
aI0
aa(lp1667
V544315385126727681
p1668
aS' keeping it classy!'
p1669
aI0
aa(lp1670
V544314961749880833
p1671
aS'Uber sux&gt;&gt;  Uber intros surge pricing in downtown Sydney during hostage siege  '
p1672
aI0
aa(lp1673
V544314781901918208
p1674
aS'Horrible. " Uber intros surge pricing in downtown Sydney during hostage siege  '
p1675
aI0
aa(lp1676
V544315679860473856
p1677
aS'Disgusting  Uber intros surge pricing in downtown Sydney during hostage siege  '
p1678
aI0
aa(lp1679
V544316287598358528
p1680
aS'  dont they mean siege pricing?'
p1681
aI0
aa(lp1682
V544316370687913984
p1683
aS' - well played sir.'
p1684
aI8
aa(lp1685
V544314448387645440
p1686
aS' gee, talk about real-time pricing.'
p1687
aI0
aa(lp1688
V544314872985423872
p1689
aS'  I love the service but this is classless'
p1690
aI0
aa(lp1691
V544316112171581440
p1692
aS'Good job uber...  Uber intros surge pricing in downtown Sydney during hostage siege  '
p1693
aI0
aa(lp1694
V544316432985899008
p1695
aS'Oh man. RT  Uber intros surge pricing in downtown Sydney during hostage siege  '
p1696
aI0
aa(lp1697
V544317958592688129
p1698
aS' Uber strikes again!!!'
p1699
aI13
aa(lp1700
V544315302901608448
p1701
aS' Uber intros surge pricing in downtown Sydney during hostage siege   disgusting'
p1702
aI0
aa(lp1703
V544315537778413568
p1704
aS' surge pricing is automatic based off high demand afaik'
p1705
aI15
aa(lp1706
V544316435435376640
p1707
aS'4x at $100 min RT  Uber intros surge pricing in downtown Sydney during hostage siege  '
p1708
aI0
aa(lp1709
V544315985164263425
p1710
aS' Uber intros surge pricing in downtown Sydney during hostage siege   Just not right'
p1711
aI0
aa(lp1712
V544314799845154816
p1713
aS'I hope this is untrue RT  Uber intros surge pricing in downtown Sydney during hostage siege '
p1714
aI0
aa(lp1715
V544316055670493184
p1716
aS'Another blow to a terribly-run company.  Uber intros surge pricing in Sydney during hostage siege '
p1717
aI0
aaa(lp1718
(lp1719
V544319832486064128
p1720
aS'Hostage situation erupts in Sydney cafe, Australian prime minister says it may be "politically motivated" '
p1721
aI0
aa(lp1722
V544320016582459393
p1723
aS" Little LATE on the ball, aren't you?"
p1724
aI0
aa(lp1725
V544321159018590208
p1726
aS" It's Monday in Australia, this is from a few hours ago. "
p1727
aI1
aa(lp1728
V544321686754316288
p1729
aS'  Sorry.I have been watching the coverage for a while now. Just thought AP was quicker than that.  Tweet was posted 5 min ago.'
p1730
aI2
aa(lp1731
V544323804399665152
p1732
aS" I see, wasn't sure if that was what you meant. They could have been waiting for the briefing to end. "
p1733
aI3
aa(lp1734
V544319992096112641
p1735
aS' Its about chocolate!'
p1736
aI0
aa(lp1737
V544320300402638848
p1738
aS'   perfect first comment'
p1739
aI5
aa(lp1740
V544320124069879809
p1741
aS' "may be" really? (forehead smack)'
p1742
aI0
aa(lp1743
V544320067190935553
p1744
aS'RT  Hostage situation erupts in Sydney cafe, Australian prime minister says it may be "politically motivated" '
p1745
aI0
aa(lp1746
V544320267107856384
p1747
aS' Actually, he said "We don\'t know if it\'s politically motivated". Check your facts, guys. sydneysiege'
p1748
aI0
aa(lp1749
V544320115647741952
p1750
aS'RT  Hostage situation erupts in Sydney cafe, Australian prime minister says it may be politically motivated '
p1751
aI0
aa(lp1752
V544320667018362880
p1753
aS" Politically Motivated? Really? Why's that then?"
p1754
aI0
aa(lp1755
V544320809276571650
p1756
aS' Australian Govt language specialists defined these words as all-encompassing meaning any action perpetrated against Australian citizens'
p1757
aI0
aa(lp1758
V544320586689048576
p1759
aS" He's a moron, Islamic terrorism, stop pussy footing around it. realproblemwithliberlism"
p1760
aI0
aa(lp1761
V544320880113762304
p1762
aS' *checks watch* Need a few more hours for your lawyers to check your facts? lol'
p1763
aI0
aa(lp1764
V544320606058340352
p1765
aS'RT Hostage situation erupts in Sydney cafe, Australian prime minister says it may be "politically motivated" '
p1766
aI0
aa(lp1767
V544321596547424257
p1768
aS' u r just now reporting on this?  Wow'
p1769
aI0
aa(lp1770
V544321318011678720
p1771
aS'  in other news, sky is blue.'
p1772
aI0
aa(lp1773
V544321396328136704
p1774
aS'  is headed there to beg the hostage takers to surrender.'
p1775
aI0
aaa(lp1776
(lp1777
V544305745416581120
p1778
aS"Police stand guard as hostages are held in a cafe in Sydney. Follow AFP's LIVE REPORT:  "
p1779
aI0
aa(lp1780
V544317391405330432
p1781
aS'  Standing guard? Looks like a coffe break.'
p1782
aI0
aa(lp1783
V544309751887429632
p1784
aS" Police stand guard as hostages are held in a cafe in Sydney. Follow AFP's LIVE REPORT:  "
p1785
aI0
aa(lp1786
V544311947936538624
p1787
aS" Police stand guard as hostages are held in a cafe in Sydney. Follow AFP's LIVE REPORT:  "
p1788
aI0
aaa(lp1789
(lp1790
V544512664769396736
p1791
aS'BREAKING: Police enter Lindt cafe, hostages flee   sydneysiege '
p1792
aI0
aa(lp1793
V544515058013716481
p1794
aS' BREAKING: Police enter Lindt cafe, hostages flee   sydneysiege '
p1795
aI0
aa(lp1796
V544513264705478657
p1797
aS' BREAKING: Police enter Lindt cafe, hostages flee   sydneysiege '
p1798
aI0
aa(lp1799
V544514424476680193
p1800
aS' BREAKING: Police enter Lindt cafe, hostages flee   sydneysiege '
p1801
aI0
aa(lp1802
V544523414330167296
p1803
aS'  Das nenne ich mal handfesten Sensationsjournalismus. Auch von RT. Could you please not annoy me with needless info?'
p1804
aI0
aaa(lp1805
(lp1806
V544333764814323713
p1807
aS'Gunman\'s headband reads, "We are your soldiers O Muhammad".\nMartinPlace SydneySiege '
p1808
aI0
aa(lp1809
V544337280694222848
p1810
aS'  Have you seen this?'
p1811
aI0
aa(lp1812
V544343251717611520
p1813
aS"Its a religion of peace ..  we don't write Jesus on bombs ... "
p1814
aI0
aa(lp1815
V544334602605563904
p1816
aS'  Gunman\'s headband reads, "We are your soldiers O Muhammad"\nMartinPlace SydneySiege '
p1817
aI0
aa(lp1818
V544370082453811200
p1819
aS'  The west needs to wake up to radical Islam. And quit picking on israel building some houses.'
p1820
aI0
aa(lp1821
V544482475410337793
p1822
aS'  BS. More Muslims r killed by Muslim countries.'
p1823
aI4
aa(lp1824
V544347661663342593
p1825
aS'  mohamed would NOT approve of their action or the action of all those killing in the name of Iislam'
p1826
aI0
aa(lp1827
V544350207119732737
p1828
aS'   these people are but a tiny minority but sadly contaminate world opinion'
p1829
aI6
aa(lp1830
V544370346342612992
p1831
aS'   Problem is the 1,6 billion muslims that are silent abt these acts.'
p1832
aI7
aa(lp1833
V544371515551408128
p1834
aS"   not so just that elements in press don't want to report the bigger picture - have their own agenda"
p1835
aI8
aa(lp1836
V544372144298131456
p1837
aS'   And what agenda would that be.  Certainly not Pro-Israel. Lol.'
p1838
aI9
aa(lp1839
V544370622928015361
p1840
aS' Gunman\'s headband reads, "We are your soldiers O Muhammad".\nSydneySiege   '
p1841
aI0
aa(lp1842
V544365684382126082
p1843
aS"  i thought head band reads: if u can read this it's well within range of your rifle."
p1844
aI0
aa(lp1845
V544338496249294848
p1846
aS'Meanwhile, these nutbags still allowed to threaten to kill Muslims and brown people.\nMartinPlace SydneySiege '
p1847
aI0
aa(lp1848
V544336733455020032
p1849
aS"  Well you don't want to read too much into that."
p1850
aI0
aa(lp1851
V544341725830201344
p1852
aS'  Could be a red herring!'
p1853
aI14
aa(lp1854
V544370603772608512
p1855
aS'  Muhammad had never wanted to hurt innocent people. This men are soldiers of the devil, not Muhammad.'
p1856
aI0
aa(lp1857
V544343136559169537
p1858
aS'  '
p1859
aI0
aa(lp1860
V544345812478988288
p1861
aS"  Ok clearly what i'd read was wrong"
p1862
aI0
aa(lp1863
V544342825799016448
p1864
aS".   JFKerry(D) just appeared on TV to explain the gunman is so NOT Islamic...  I'm relieved"
p1865
aI0
aaa(lp1866
(lp1867
V544290258951892992
p1868
aS'Central Sydney shut down by police amid ongoing hostage situation: '
p1869
aI0
aa(lp1870
V544290355068166146
p1871
aS' Central Sydney shut down by police amid ongoing hostage situation:  '
p1872
aI0
aa(lp1873
V544292833042374656
p1874
aS'  Sydney needs to borrow some guns??'
p1875
aI0
aa(lp1876
V544292284259262464
p1877
aS' diversity'
p1878
aI0
aa(lp1879
V544297064679477248
p1880
aS' now remember, even if your kids r in the cafe, no torturing anyone who might know anything if this happens in U.S.'
p1881
aI0
aa(lp1882
V544299831054073856
p1883
aS'Thoughts go out to those in Sydney dealing with the 20-hostage situation  '
p1884
aI0
aa(lp1885
V544295119051300864
p1886
aS'  \nPrayers'
p1887
aI0
aa(lp1888
V544291071833157632
p1889
aS' Central Sydney shut down by police amid ongoing hostage situation: '
p1890
aI0
aa(lp1891
V544297256036630528
p1892
aS'  ugh. The craziness continues!'
p1893
aI0
aa(lp1894
V544293285670694912
p1895
aS' Central Sydney shut down by police amid ongoing hostage situation:  hoping for all the best here'
p1896
aI0
aa(lp1897
V544292932216696832
p1898
aS" More workplace violence I'm sure !"
p1899
aI0
aaa(lp1900
(lp1901
V544274934835707905
p1902
aS'Several people being held hostage at a Sydney cafe. Australian tv showing people with  hands up against a window: '
p1903
aI0
aa(lp1904
V544275371257233408
p1905
aS" Just add the fact that they're holding a Isis flag for fuck sake"
p1906
aI0
aa(lp1907
V544320568888016896
p1908
aS'  and media reporting bomb devices all over the cbd as well. They make up horseshit'
p1909
aI1
aa(lp1910
V544295872515686400
p1911
aS"  yeah it's not"
p1912
aI1
aa(lp1913
V544296135180169216
p1914
aS'  clarified that earlier. Cheers'
p1915
aI3
aa(lp1916
V544296344970465280
p1917
aS'  still scary as hell though. Just we had media reporting all sorts of shit which is dangerous'
p1918
aI4
aa(lp1919
V544278146397519872
p1920
aS'   Being forced to hold an IS flag up by ISIS followers, or is that not part of the news ?'
p1921
aI0
aa(lp1922
V544276498778423297
p1923
aS' BUT WHY A FUCKING CAFE IN AUSTRALIA'
p1924
aI0
aa(lp1925
V544277297172189184
p1926
aS'   Perfect place to get live media coverage.'
p1927
aI7
aa(lp1928
V544277161985585152
p1929
aS'  The cafe is in the central business district of Sydney. Right across from Channel 7 news head office.'
p1930
aI7
aa(lp1931
V544277362368843777
p1932
aS"  still extremely confusing. Why a CAFE in AUSTRALIA. It doesn't make sense"
p1933
aI9
aa(lp1934
V544277631990898688
p1935
aS"  Like I said it's directly across from a big news channel."
p1936
aI10
aa(lp1937
V544296176892116993
p1938
aS'   probably the layout of the building. Public place. Easy media coverage'
p1939
aI9
aa(lp1940
V544296446368169984
p1941
aS"   true. Seems it's well executed"
p1942
aI12
aa(lp1943
V544275715185995776
p1944
aS" Yeah, being forced to hold an ISIS flag. Why aren't you reporting that?"
p1945
aI0
aa(lp1946
V544295967638302720
p1947
aS"  cos it's not"
p1948
aI14
aa(lp1949
V544296840045535232
p1950
aS"  I'm well aware of that. I wasn't at the time I Tweeted that."
p1951
aI15
aa(lp1952
V544280989187321856
p1953
aS'  The company that owns this Cafe in Sydney  refused the halal cert . Refuse halal and terrorists will target u.'
p1954
aI0
aa(lp1955
V544282274510811137
p1956
aS'   time we Australians say enough is enough to Muslim bs'
p1957
aI17
aa(lp1958
V544282661909323776
p1959
aS"   \nAnd that time is now, they have brought it to us, they'll be sorry"
p1960
aI18
aa(lp1961
V544282961118375936
p1962
aS'   fucking camel fuckers cowards picking on civilians'
p1963
aI19
aa(lp1964
V544285405390983168
p1965
aS'    More Ammo to clean up militant Islamics inOzz   No more pussyfooting Diggers  Smack em down'
p1966
aI20
aa(lp1967
V544286181827952641
p1968
aS'    absolutely agree!!!'
p1969
aI21
aa(lp1970
V544287443407892480
p1971
aS' just watching here Hun, shocking news x'
p1972
aI19
aa(lp1973
V544287983260549121
p1974
aS' We knew this was coming, still shocking, these poor people x'
p1975
aI23
aa(lp1976
V544288286748205056
p1977
aS" I'm sure it will happen here too, what part did you say u were from Hun? X"
p1978
aI24
aa(lp1979
V544288694497071104
p1980
aS"God knows you good ppl have already had your share , I'm about 5 hrs away from Sydney "
p1981
aI25
aa(lp1982
V544289493260701697
p1983
aS" it's not over here yet Hun, it's heartbreaking to hear what's happening around the world. All because of a prehistoric evil cult. X"
p1984
aI26
aa(lp1985
V544290366493446145
p1986
aS" that prehistoric evil cult, murdered ppl on the trains &amp; buses, you've had more then your share x"
p1987
aI27
aa(lp1988
V544290947404943361
p1989
aS" we have Hun and it's not going to stop either, that's the frightening part x"
p1990
aI28
aa(lp1991
V544288960642834432
p1992
aS'    where are you sue in oz ?'
p1993
aI19
aa(lp1994
V544289309189107712
p1995
aS'NSW about 5hrs away from Sydney    '
p1996
aI30
aa(lp1997
V544289610869010434
p1998
aS'    cool least your ok bet its a worrying time though for you'
p1999
aI31
aa(lp2000
V544290571280338948
p2001
aS'So sorry &amp; fear for the hostages    '
p2002
aI32
aa(lp2003
V544290890370777088
p2004
aS'    yeah i bet its awful'
p2005
aI33
aa(lp2006
V544286846780723200
p2007
aS'     Talk talk we need action toigh action.'
p2008
aI19
aa(lp2009
V544287503310528513
p2010
aS'     justification to NOT permit jihadists return to Aus/UK - they cannot be trusted!'
p2011
aI35
aa(lp2012
V544275135809998850
p2013
aS' For Only $25 You Can Buy 10K Followers  .'
p2014
aI0
aa(lp2015
V544275191787175937
p2016
aS'  news.'
p2017
aI37
aa(lp2018
V544279314808582145
p2019
aS' '
p2020
aI0
aa(lp2021
V544277407411097600
p2022
aS"  who could be doing this? And why? Don't expect bbc to tell you"
p2023
aI0
aa(lp2024
V544278190936424449
p2025
aS"   Muslim extremists that's who. "
p2026
aI40
aaa(lp2027
(lp2028
V544278335455776769
p2029
aS'BREAKING Hostages held inside Sydney cafe, Islamic flag held up'
p2030
aI0
aa(lp2031
V544278581585907713
p2032
aS' do you enjoy being consistently wrong or is it really inadvertent?'
p2033
aI0
aa(lp2034
V544279731911524352
p2035
aS'Australia ISIS Terrorism\n BREAKING Hostages held inside Sydney cafe, Islamic flag held up'
p2036
aI0
aa(lp2037
V544278685759860736
p2038
aS" That's not the flag, just looks like it"
p2039
aI0
aa(lp2040
V544279909796175873
p2041
aS'" BREAKING Hostages held inside Sydney cafe, Islamic flag held up" &lt;&lt;Terrifying stuff.Nutters&gt;&gt;'
p2042
aI0
aa(lp2043
V544279084939767808
p2044
aS'Actually debate on the flag  BREAKING Hostages held inside Sydney cafe, Islamic flag held up'
p2045
aI0
aa(lp2046
V544280027714420736
p2047
aS' this is not an "Islamic" flag, not even the ISIS flag. The Islamic community in no way condones these action.'
p2048
aI0
aa(lp2049
V544278855226122242
p2050
aS' BREAKING Hostages held inside Sydney cafe, Islamic flag held up oh god'
p2051
aI0
aa(lp2052
V544279252028243968
p2053
aS'NOT the ISIS flag RT  BREAKING Hostages held inside Sydney cafe, Islamic flag held up'
p2054
aI0
aa(lp2055
V544279915076784129
p2056
aS'Thoughts with Sydney tonight.  BREAKING Hostages held inside Sydney cafe, Islamic flag held up'
p2057
aI0
aaa(lp2058
(lp2059
V544309275141885952
p2060
aS'Approximately 50 hostages may be held captive at Lindt caf  local reports  sydneysiege '
p2061
aI0
aa(lp2062
V544310817521696769
p2063
aS' dear God!!! '
p2064
aI0
aa(lp2065
V544309574107693056
p2066
aS' I thought it was only 1 from the beginning'
p2067
aI0
aa(lp2068
V544309904992108545
p2069
aS'Good thing Australia has strict gun laws. " Approximately 50 hostages may be held captive at Lindt caf '
p2070
aI0
aa(lp2071
V544310642996301825
p2072
aS" why don't you get off Twitter and protect the next pre-school that will get hit by your infinite number of crazed gunmen"
p2073
aI3
aa(lp2074
V544311269533437952
p2075
aS' There is a mental health problem not a gun problem.'
p2076
aI4
aa(lp2077
V544312149846151168
p2078
aS" let's not forget those naughty video games, hope that keeps you warm before the next mass shooting"
p2079
aI5
aa(lp2080
V544312916410114048
p2081
aS'  From: A video game playing gun-owner who has never shot anyone.'
p2082
aI6
aa(lp2083
V544312720984915968
p2084
aS'  Why do we blame everything except for the maniac that does the actual act?'
p2085
aI6
aa(lp2086
V544318148162244610
p2087
aS'  yep blaming the shooter shud prevent d nxt mass shooting...if this goes south (hope not) this is the first in 18yrs!'
p2088
aI8
aa(lp2089
V544331613807849472
p2090
aS'  But how does it happen at all w/ a ban in place? We all know bans completely prevent the banned activity from happening.'
p2091
aI9
aa(lp2092
V544333302761402369
p2093
aS"  I'd gladly have our 1 in 18yrs situation to your one in 18wk mass shootings."
p2094
aI10
aa(lp2095
V544334599342784512
p2096
aS'  Have fun defending your home with a baseball bat while waiting 30 minutes for the cops to show up.'
p2097
aI11
aa(lp2098
V544335993977847808
p2099
aS"  have you seen our crime stats? We don't even lock our doors."
p2100
aI12
aa(lp2101
V544338052244840448
p2102
aS"  So you don't agree anyone should own a gun but yet when something bad happens you're going to call a cop.. That has a gun"
p2103
aI13
aa(lp2104
V544338807038824449
p2105
aS"  it's worked for us for the last 18yrs hasn't it?"
p2106
aI14
aa(lp2107
V544339122463453185
p2108
aS"  No, it hasn't. "
p2109
aI15
aa(lp2110
V544342454938243072
p2111
aS"  that's Britain! I still would prefer their homicide rates to yours"
p2112
aI16
aa(lp2113
V544360294752190464
p2114
aS'  And I prefer my freedoms to yours. Thanks for your concern, though.'
p2115
aI17
aa(lp2116
V544335029149900800
p2117
aS"  And I'd gladly have my freedom to protect my family. Thanks."
p2118
aI11
aa(lp2119
V544336231358664704
p2120
aS'  statistics say your freedom will be used to shoot your family not protect them.'
p2121
aI19
aa(lp2122
V544313221180833792
p2123
aS' So Australia has banned guns and Violent video games. Looked at what has happened.'
p2124
aI6
aa(lp2125
V544309563848003584
p2126
aS" That's an exaggeration, get your facts right."
p2127
aI0
aa(lp2128
V544309589575864320
p2129
aS' 50 Hostages now    '
p2130
aI0
aa(lp2131
V544309882673844224
p2132
aS' - "Approximately 50 hostages", in the article linked the first few lines says the number is closer to 13.'
p2133
aI0
aa(lp2134
V544309667099181056
p2135
aS' I pray for the safety of all the hostages; and that they are released soon.'
p2136
aI0
aa(lp2137
V544310719965970432
p2138
aS" nah it's 5000 or maybe 500. Or Whatever sounds more alarming"
p2139
aI0
aa(lp2140
V544309653266386944
p2141
aS" they're gonna fuck that dude up"
p2142
aI0
aa(lp2143
V544311849794023424
p2144
aS" There are not 50 hostages, don't know really know if terrorist or not, stop spreading speculation as Fact. sydneyseige"
p2145
aI0
aa(lp2146
V544311680893583360
p2147
aS'Via " Approximately 50 hostages may be held captive at Lindt caf    sydneysiege '
p2148
aI0
aa(lp2149
V544311985999867905
p2150
aS'  CEO said only 10 employees! Must be a lot of customers. It is good chocolate'
p2151
aI29
aa(lp2152
V544343843731034114
p2153
aS'   \nStay away from chocolate ;)'
p2154
aI30
aaa(lp2155
(lp2156
V544292670336925696
p2157
aS'UPDATE: 13 hostages inside Sydney coffee shop near Sydney Opera House; Abbott will deliver a statement shortly. ISISAttacks sydneyseige'
p2158
aI0
aa(lp2159
V544292860057894913
p2160
aS' Of course it just HAD to be 13 falseflag'
p2161
aI0
aa(lp2162
V544293283225427968
p2163
aS" Abbott already did. And we don't know of it's the IS or al-Qaeda or some other Islamic group. You're so bad a reporter.."
p2164
aI0
aa(lp2165
V544292754344275968
p2166
aS' he already did'
p2167
aI0
aa(lp2168
V544294929300602880
p2169
aS" this cafe is not near the opera house! It's in Martin place."
p2170
aI0
aa(lp2171
V544293948790177794
p2172
aS' haha way behind'
p2173
aI0
aa(lp2174
V544303794746429440
p2175
aS"  Abbott will, will He anyone tell Him it hasn't finished yet...LOL.... no don't tell him..hear what he says"
p2176
aI0
aaa(lp2177
(lp2178
V544514570367168512
p2179
aS'SydneySiege: Latest video of hostages escaping.\n'
p2180
aI0
aa(lp2181
V544515712640094209
p2182
aS' where is al sharpton to a rest the cops. Australian cops are awesome!!!'
p2183
aI0
aa(lp2184
V544516832137592832
p2185
aS'Unreal. Like a scene out of a movie/video game. RT  SydneySiege: Latest video of hostages escaping.\n'
p2186
aI0
aa(lp2187
V544518358113480705
p2188
aS' Unreal. Like  a movie  SydneySiege: Latest video of hostages escaping.\n '
p2189
aI2
aa(lp2190
V544517360787263489
p2191
aS' How long before Fox viewers blame this on President Obama? 3...2...1...'
p2192
aI0
aa(lp2193
V544517439439241217
p2194
aS"  The corrupt Congress just funded Obama's illegal amnesty, but Fox will distract viewers with Sydney, Sydney......."
p2195
aI0
aa(lp2196
V544517033644556288
p2197
aS'  Illegal Aliens will kill 25 US Citizens today in the USA and Fox will report on NONE of them: Obama thanks you....'
p2198
aI0
aa(lp2199
V544515123726258176
p2200
aS' Is he dead yet?'
p2201
aI0
aa(lp2202
V544515720726323201
p2203
aS' SydneySiege: watch live Latest video of hostages escaping.\n'
p2204
aI0
aa(lp2205
V544515318626799616
p2206
aS' looks like a bomb disposal robot is getting ready to go in'
p2207
aI0
aa(lp2208
V544516094133035008
p2209
aS'   Boil him in pig fat, I.e. Lard.'
p2210
aI0
aa(lp2211
V544514712961306625
p2212
aS' GUNMAN IS DOWN'
p2213
aI0
aa(lp2214
V544518602469441537
p2215
aS' This is a great training video! These people comply with police as seen with their HANDS UP! Ironically, none of them were shot.'
p2216
aI0
aa(lp2217
V544514752316051456
p2218
aS' Hope they smoked that Isis dickhead'
p2219
aI0
aa(lp2220
V544515072731914240
p2221
aS'  any update on PA shooting?'
p2222
aI13
aa(lp2223
V544515987832188928
p2224
aS'  Hust saw the flash but Sydney dominating the reports right now'
p2225
aI14
aaa(lp2226
(lp2227
V544319274072817664
p2228
aS'Ray Hadley says he spoke with hostage, and could hear the gunman in the background barking orders and demanding to go live on air'
p2229
aI0
aa(lp2230
V544319680194699264
p2231
aS' speculation is NOT Journalism'
p2232
aI0
aa(lp2233
V544324400766799873
p2234
aS'  There must be a way to enter that building?'
p2235
aI0
aa(lp2236
V544323145608343553
p2237
aS'  could this be a response test by terrorist group about our emergency and anti terrorist services'
p2238
aI0
aa(lp2239
V544321229360869376
p2240
aS'. Fuck, if I was being held hostage, literally the last person on earth I would want to hear from is that cunt'
p2241
aI0
aa(lp2242
V544320911554265088
p2243
aS'  Do we know the person has a gun?'
p2244
aI0
aa(lp2245
V544322790329835521
p2246
aS'  prefer to listen to Hadley than the terrorist deniers at their ABC'
p2247
aI0
aa(lp2248
V544321107017232384
p2249
aS'  Report responsibly! iammuslimterroristsarenot'
p2250
aI0
aa(lp2251
V544319596719661056
p2252
aS' who believes Ray Hadley?'
p2253
aI0
aa(lp2254
V544321707436019712
p2255
aS'  is Ray prepared to go in wearing a wire?'
p2256
aI0
aa(lp2257
V544321039476346881
p2258
aS'   shoot him where his willy is since islam cherish it sooo much.'
p2259
aI0
aa(lp2260
V544321096221077505
p2261
aS"  Why isn't he putting that call through to the police? Should be focused on helping, not media coverage."
p2262
aI0
aa(lp2263
V544321184993529856
p2264
aS'  Ray Hadley, the worst muslim baiter in the country?  You listen to that nitwit.'
p2265
aI0
aa(lp2266
V544320325639364608
p2267
aS'A bit like Hadley then? \n\n Ray Hadley spoke with hostage &amp; could hear the gunman barking orders demanding to go live on air'
p2268
aI0
aaa(lp2269
(lp2270
V544288681021145090
p2271
aS'Up to 20 held hostage in Sydney Lindt Cafe siege  '
p2272
aI0
aa(lp2273
V544290755624198144
p2274
ag355
aI0
aa(lp2275
V544288822545354753
p2276
aS" at least they've got good chocolate"
p2277
aI0
aa(lp2278
V544299161084895232
p2279
aS'  You cunt.'
p2280
aI2
aa(lp2281
V544289696915136512
p2282
aS' you are an insensitive idiot!'
p2283
aI2
aa(lp2284
V544299655660843009
p2285
aS'What the Hell?! Up to 20 held hostage in Sydney Lindt Cafe siege  '
p2286
aI0
aa(lp2287
V544290393693904896
p2288
aS' all reports say 13'
p2289
aI0
aa(lp2290
V544297324466282497
p2291
aS' Can we take the gloves off and go over and kill these ISIS bastards before they cause any more trouble?'
p2292
aI0
aa(lp2293
V544291860425232384
p2294
aS' Religion is nothing but harmful to society.'
p2295
aI0
aa(lp2296
V544290348525449216
p2297
aS' Up to 20 held hostage in Sydney Lindt Cafe siege   Oh. My. God. I am SICK!'
p2298
aI0
aa(lp2299
V544297924088582144
p2300
aS' Get the terrorists families, take them to the cafe. Surrender or your families will be shot in front of you. Eye for an eye.'
p2301
aI0
aa(lp2302
V544290635013189632
p2303
aS'  oh god !!!!'
p2304
aI0
aa(lp2305
V544288801926156289
p2306
aS' Up to 20 held hostage in Sydney Lindt Cafe siege  '
p2307
aI0
aa(lp2308
V544289449941557248
p2309
aS' Up to 20 held hostage in Sydney Lindt Cafe siege  '
p2310
aI0
aa(lp2311
V544289312314228737
p2312
aS" Up to 20 held hostage in Sydney Lindt Cafe siege  - wonder if they'll get paid overtime"
p2313
aI0
aa(lp2314
V544292185722851329
p2315
aS'Sick. " Up to 20 held hostage in Sydney Lindt Cafe siege  '
p2316
aI0
aa(lp2317
V544298040652099584
p2318
aS' Up to 20 held hostage in Sydney Lindt Cafe siege  '
p2319
aI0
aaa(lp2320
(lp2321
V544328894812549121
p2322
aS'SYDNEYSIEGE: Hostage-takers have suicide belts, demand radio convo with Abbott  report  '
p2323
aI0
aa(lp2324
V544330173395775488
p2325
aS'Nice linkbait.  but does a "report" of a suicide belt really rate a headline like your tweet? sydneysiege '
p2326
aI0
aa(lp2327
V544330583363837953
p2328
aS' Typical  BS'
p2329
aI1
aa(lp2330
V544329732561854464
p2331
aS" ok, time to calm down and report responsibly on sydneysiege - don't fill in the unknowns with fear-mongering!"
p2332
aI0
aa(lp2333
V544340424996184066
p2334
aS' Fuck religion. sydneySeige'
p2335
aI0
aa(lp2336
V544329409159639040
p2337
aS' Which report? Do not spread rumours'
p2338
aI0
aa(lp2339
V544330788201050113
p2340
aS'Deep inside  sydneysiege story was this   '
p2341
aI0
aa(lp2342
V544336481192402945
p2343
aS'.  Were you listening to the same news conference I was????? WHAT IS WITH ALL OF THE DISINFORMATION ON THIS EVENT???'
p2344
aI0
aa(lp2345
V544335551361744896
p2346
aS" Thanks for sharing! You're now featured on "
p2347
aI0
aa(lp2348
V544329632565452801
p2349
aS' This sounds like made up BS'
p2350
aI0
aa(lp2351
V544349089890959360
p2352
aS"  It's not made up but I think there is only 1 offender with muslim flag &amp; local news didn't mention suicide belt"
p2353
aI9
aa(lp2354
V544349391264296961
p2355
aS'  They have also evacuated sydney opera house due to suspicious package Sydneysiege'
p2356
aI9
aa(lp2357
V544349633334374400
p2358
aS'  They have also evacuated Sydney state library but I have no idea why Sydneysiege'
p2359
aI9
aa(lp2360
V544334861021229056
p2361
aS'.  "another report claims hostage takers have suicide belts" - no sourcing, no facts, just spreading hysteria. \n\nYou folks SUCK.'
p2362
aI0
aa(lp2363
V544329715558154241
p2364
aS' THEY JUST COULD NOT HAVE PICKED A MORE CONVENIENT TIME FOR.....THE USA GOVERNMEMT....JOHN MCCAIN STOP IT WITH YOUR PAID TERRORISTS!'
p2365
aI0
aa(lp2366
V544344965443510273
p2367
aS'  \n\nYou are on crack. Your foolish comment invalidates any truth that may be buried within the nonsense.'
p2368
aI14
aa(lp2369
V544330294275235842
p2370
aS' FALSE FLAG OPERATION CIA BLACK OP'
p2371
aI0
aa(lp2372
V544332606280437760
p2373
aS' ;) Hey Aussie Sheeple wanna invade the middle east because of one wack job...:0'
p2374
aI16
aa(lp2375
V544333004928057345
p2376
aS" IT'S AN OLD TIRED STORY!!! WE GOTTA NIP THIS IN THE BUD!"
p2377
aI17
aa(lp2378
V544333222801186816
p2379
aS" when it started to appear on M$M the narrative was the same. ..Like say a Script..I mean 'goverMENt press release ..fishy..:("
p2380
aI16
aa(lp2381
V544333536086339584
p2382
aS" well tell everyone you know not to believe it..it's gonna fall apart I bet!"
p2383
aI19
aa(lp2384
V544335782454886400
p2385
aS' has already. .msm may start interviewing CrISIS actors soon. ..'
p2386
aI20
aa(lp2387
V544336049330061315
p2388
aS' CIA shills coming at me...lots of nasty names LOL like a give away! come on you gotta help'
p2389
aI21
aa(lp2390
V544345742664822784
p2391
aS"  \n\nYou two should get together and have the world's stupidest baby."
p2392
aI19
aa(lp2393
V544346603520135168
p2394
aS'  my 11 yr old would outwit you moron. ..:) blocked'
p2395
aI23
aa(lp2396
V544349752834285568
p2397
aS'  CIA FAKE PROFILE ONLY KNOW HOW TO INSULT THE TRUTH! FALSEFLAG SYDNEYSIEGE'
p2398
aI24
aa(lp2399
V544351912599240704
p2400
aS"  \n\nthat statement doesn't make you less stupid. Get yourself to Perth; the zoo of the future needs its idiot"
p2401
aI25
aa(lp2402
V544347763853770752
p2403
aS"  \n\nPoor kid. Doesn't have a chance with a fuck-tard like you as a father."
p2404
aI24
aa(lp2405
V544345140727660544
p2406
aS"  \n\nYou are on crack mate. Complete bunk is what you're spreading."
p2407
aI16
aa(lp2408
V544330413607755776
p2409
aS'  another Israeli false flag operation? This is what Abbott had been PRAYING for.'
p2410
aI0
aa(lp2411
V544346015013167104
p2412
aS"  Does seem terribly convenient to Abbott's gov't."
p2413
aI29
aa(lp2414
V544349614393282561
p2415
aS"  he will up oz's military budget then become a huge consultant / board member to 'defense' companies when he retires."
p2416
aI30
aa(lp2417
V544345462564999169
p2418
aS'   \n\nPeople like you and these things that you say are what keep people like me (the establishment) laughing'
p2419
aI29
aa(lp2420
V544409231110443008
p2421
aS"    if you're part of the establishment then you're part of the problem. \nCUNT"
p2422
aI32
aa(lp2423
V544497329920036865
p2424
aS"    \nHilarious! A cunt like you can insult me, then block me so I can't respond?\npussy"
p2425
aI33
aa(lp2426
V544349387741495296
p2427
aS'   ;)'
p2428
aI32
aa(lp2429
V544351491851829249
p2430
aS'   \n\nConspiracy wackjob'
p2431
aI35
aaa(lp2432
(lp2433
V544391176137089024
p2434
aS'Hostage taker in Sydney cafe demands ISIS flag and call with Australian PM, Sky News reports.  sydneysiege'
p2435
aI0
aa(lp2436
V544392471007227904
p2437
aS' Hostage taker in Sydney cafe demands ISIS flag and call with Australian PM, Sky News reports.  sydneysiege'
p2438
aI0
aa(lp2439
V544735353962127362
p2440
aS'   How to Create an "Islamic Enemy" - '
p2441
aI1
aa(lp2442
V544391326712610817
p2443
aS' Raytheon has made various RF weapons for decades:   Similar to those used on TargetedIndividuals'
p2444
aI0
aa(lp2445
V544394302231568384
p2446
aS" So they noticed they had the wrong flag and decided to ask for the right one... Wow, these 'terrorists' sound supremely incompetent."
p2447
aI0
aa(lp2448
V544394398855729152
p2449
aS' must be shot in head through snipers.'
p2450
aI0
aa(lp2451
V544402752307462144
p2452
aS' Shoot him'
p2453
aI0
aa(lp2454
V544391552710508544
p2455
aS' Yes, surely the Australian government has ISIS flags ready to give just for this moment.'
p2456
aI0
aa(lp2457
V544401031136677888
p2458
aS'  One day black flag will fly on the UN Hq too.\n playing the flute as world burns.'
p2459
aI7
aa(lp2460
V544395913507004416
p2461
aS' I thought police asked media not to report demands. Why you giving these terrorists a voice?'
p2462
aI0
aa(lp2463
V544393459126521856
p2464
aS' just send em a Bart Simson flag w/themiddle finger and a bullet'
p2465
aI0
aa(lp2466
V544394097340207104
p2467
aS' coffee anyone??'
p2468
aI10
aa(lp2469
V544391380731441152
p2470
aS' avnt they shot him yet'
p2471
aI0
aa(lp2472
V544391921506852865
p2473
aS"  it's crazy huh, they want to have a peaceful resolution then give him all the entitlements to make his life better "
p2474
aI12
aa(lp2475
V544391556459790336
p2476
aS"  we don't shoot in Australia"
p2477
aI12
aa(lp2478
V544447280389312512
p2479
aS' Yes, and it would seem the terrorists are positively counting on that.    '
p2480
aI14
aa(lp2481
V544452220432179200
p2482
aS'   wats for breakfast in Sydney today'
p2483
aI15
aa(lp2484
V544391456140836864
p2485
aS' Stick that ISIS flag up his ass.'
p2486
aI0
aa(lp2487
V544395137703350272
p2488
aS'MT  Hostage taker in Sydney cafe demands ISIS flag and call with Australian PM, Sky News reports. sydneysiege'
p2489
aI0
aa(lp2490
V544395898907013120
p2491
aS" he couldn't make his own eh? he needs some diapers and wet napkins as well I'd say."
p2492
aI0
aa(lp2493
V544400643130007552
p2494
aS' The free world burns as  plays the flute.\nThe weakest US Prez ever.'
p2495
aI0
aa(lp2496
V544398219917017089
p2497
aS' Strange times'
p2498
aI0
aaa(lp2499
(lp2500
V544277117039837184
p2501
aS'Flag in window of Sydney Lindt cafe not an ISIS flag. Reads: There is no God but Allah and Muhammad is the messenger of God ('
p2502
aI0
aa(lp2503
V544279139704782848
p2504
aS'   Not a great comfort but an important detail to emphasise.'
p2505
aI0
aa(lp2506
V544277505293561858
p2507
aS'  good to see somebody did some research  SydneySiege'
p2508
aI0
aa(lp2509
V544280441151574016
p2510
aS'  Go get the Isis thugs NOW !!!'
p2511
aI0
aa(lp2512
V544306676619173889
p2513
aS"   apparantely this loner is not isis, and I don't think cowboy comments like this help right now."
p2514
aI3
aa(lp2515
V544277836891033600
p2516
aS'  \n\nWho cares about the flag, the people being held hostage are more important.'
p2517
aI0
aa(lp2518
V544279824890871809
p2519
aS"  it's a Sunni flag. ISIS are Sunni. So are Al Qaida. Black=Sunni. Green=Shia."
p2520
aI0
aa(lp2521
V544277353900154880
p2522
aS' Support a mediablackout to avoid giving the hostage takers a platform for their message &amp; risking future copycats martinplace'
p2523
aI0
aa(lp2524
V544345616265261056
p2525
aS"  ...It's Jihadists. Copying dumbassery has kind of been their bag for centuries."
p2526
aI7
aa(lp2527
V544278198150647809
p2528
aS'  you say what? Blackout? How will the hide the budget then?'
p2529
aI7
aa(lp2530
V544281375826665472
p2531
aS' so its not an IS flag - must be a peaceful Islamic extremist group then!'
p2532
aI0
aa(lp2533
V544307827070615553
p2534
aS'   \nIt is according to this terrorism expert\n'
p2535
aI10
aa(lp2536
V544310742086717441
p2537
aS' I was being facetious as it seems media and the left go out of their way to minimise islamist terror threat'
p2538
aI11
aa(lp2539
V544311853409529856
p2540
aS' \nI know, it was mostly aimed at    but thought you would also be interested in that piece'
p2541
aI12
aa(lp2542
V544460273432530944
p2543
aS'  wsy too many pc apologists with their heads up their arse . Should get ready to kiss it goodbye'
p2544
aI13
aa(lp2545
V544277972597755904
p2546
aS"    So it's not ISIS but Islam in general. Much better... leftards better think up a new word islamaphobia"
p2547
aI0
aa(lp2548
V544281262371119104
p2549
aS' Islamanausea'
p2550
aI15
aa(lp2551
V544281431917076480
p2552
aS' it will still be blametony'
p2553
aI16
aa(lp2554
V544282348049956864
p2555
aS' "phobia" ="irrational fear ". The" civilised " world is just"sick" of these animals. nausea'
p2556
aI17
aa(lp2557
V544306571350921216
p2558
aS'     Agree when left/muslims deny IS is islamic it is a clear cut case of Islamaphobia'
p2559
aI15
aa(lp2560
V544280357760024576
p2561
aS'  there is something really wrong with these people. Export them back.'
p2562
aI0
aa(lp2563
V544308681337106432
p2564
aS'    along with all life hating alan vomit jones listeners too, thatd help, the redneck brigade.'
p2565
aI20
aa(lp2566
V544316325468725248
p2567
aS'    People should be kind to each other and live together no matter which religion.'
p2568
aI21
aa(lp2569
V544296634767929344
p2570
aS'   yeah send them to Kobane in Syria..'
p2571
aI20
aa(lp2572
V544277721186979840
p2573
aS'  so what'
p2574
aI0
aa(lp2575
V544279000672387072
p2576
aS"   Muhammad would be the guy with the 9 yr old wives and the order of death to infidels? What's the diff?"
p2577
aI0
aa(lp2578
V544281387499413504
p2579
aS' Isn\'t the Arabic for God, Allah? So shouldn\'t it be - "There is no god but the God, Muhammad is the messenger of the God"'
p2580
aI0
aa(lp2581
V544278016235302912
p2582
aS'  Allah means God. Why would you translate inconsistently and selectively like that? Oh, never mind. I know why.'
p2583
aI0
aa(lp2584
V544279344252596224
p2585
aS'  same shit'
p2586
aI0
aa(lp2587
V544279451760996352
p2588
aS"   then I guess we all don't need to worry???"
p2589
aI0
aa(lp2590
V544280318870827008
p2591
aS"  so why can't  tell us the same"
p2592
aI0
aaa(lp2593
(lp2594
V544504183341064192
p2595
aS'Escaped SydneySiege hostage, Elly Chen, a top student and skilled sportswoman  '
p2596
aI0
aa(lp2597
V544536420660961280
p2598
aS" A sportswoman INDEED, thank God she survived the shooting :') run escape sydneysiege"
p2599
aI0
aa(lp2600
V544504969437540354
p2601
aS' you made this girl a top student and skilled sport women and all comeon man lets things get over first sydneysiege'
p2602
aI0
aa(lp2603
V544507804829351937
p2604
aS'  lol'
p2605
aI2
aa(lp2606
V544513184669769730
p2607
aS' Asians be like "F$ck this shit, I gotta go home and study".'
p2608
aI0
aa(lp2609
V544510279694823424
p2610
aS' Sydneysiege selfies\n'
p2611
aI0
aa(lp2612
V544510576148238336
p2613
aS'If you work with this twat, kick him in the balls for me. Kthxbai.   Sydneysiege selfies\n'
p2614
aI5
aa(lp2615
V544514420769296384
p2616
aS' Why release her name? Give her time to heal in privacy. Do you have no ethics?'
p2617
aI0
aa(lp2618
V544510767530524672
p2619
aS" Give her a gun maybe she'll end this.The Police are afraid of a shot gun.U should have got him B4 the World woke up this AM"
p2620
aI0
aaa(lp2621
(lp2622
V544520273718812672
p2623
aS'Police confirm that sydneysiege is finally over. Two people reportedly injured after suffering gunshot wounds '
p2624
aI0
aa(lp2625
V544520494062370816
p2626
aS' watching it live!'
p2627
aI0
aa(lp2628
V544520377162952704
p2629
aS' :('
p2630
aI0
aa(lp2631
V544520601038098433
p2632
aS' '
p2633
aI0
aa(lp2634
V544601984800534528
p2635
aS' :('
p2636
aI0
aa(lp2637
V544520507580628992
p2638
aS" so thankful everyone's safe it's been a long day"
p2639
aI0
aa(lp2640
V544521333682356224
p2641
aS" thank god they're all safe now. some wounded, but still safe."
p2642
aI0
aa(lp2643
V544525858581401600
p2644
aS" thank god its over, they're finally safe, although some are wounded. what a terrifying thing to be put through :("
p2645
aI0
aa(lp2646
V544520944148963328
p2647
aS" The 6 of us are watching this unfold, I'm shaking, My heart goes out to the hostages and their families. "
p2648
aI0
aa(lp2649
V544520421479956481
p2650
aS" I'm fucking traumatized"
p2651
aI0
aa(lp2652
V544520381952835584
p2653
aS' both dead angus  3 injured'
p2654
aI0
aa(lp2655
V544520557803225088
p2656
aS'  THATS THE LADY FROM THE VIDEO'
p2657
aI0
aa(lp2658
V544521241848053761
p2659
aS' omfg it is '
p2660
aI11
aa(lp2661
V544520698127872001
p2662
aS'  I DIDNT WATCH THE VIDEO I WAS TOO SCARED WHAT HAPPENED'
p2663
aI11
aa(lp2664
V544520850779549697
p2665
aS"  people escaping and it's all over mow"
p2666
aI13
aa(lp2667
V544520432615821312
p2668
aS" I think it's 4 injured. I can't believe this is happening. I've also heard 2 people have died"
p2669
aI0
aa(lp2670
V544520373715222528
p2671
aS' oh my god'
p2672
aI0
aa(lp2673
V544520387761930240
p2674
aS" THANK GAWD IT'S OVER"
p2675
aI0
aa(lp2676
V544520444288589825
p2677
aS' Angus!! They havent said anything about the gunman??'
p2678
aI0
aaa(lp2679
(lp2680
V544289941996326912
p2681
aS"Prime Minister Tony Abbott's statement on the SydneySiege. Updates:  "
p2682
aI0
aa(lp2683
V544291376968790016
p2684
aS' '
p2685
aI0
aa(lp2686
V544317955714994176
p2687
aS'  thank god our madness is limited to running around and causing anyone any harm. Hope for a peaceful ending'
p2688
aI0
aa(lp2689
V544322700726906880
p2690
aS' Prime ministers should not have to comment on everything.'
p2691
aI0
aa(lp2692
V544403327459790848
p2693
aS" Prime Minister Tony Abbott's statement on the SydneySiege. Updates:  "
p2694
aI0
aaa(lp2695
(lp2696
V544271284796784640
p2697
aS"DEVELOPING: Gunman Takes Hostages In Sydney Cafe, 'ISIS' Flags Being Held Against Window -  "
p2698
aI0
aa(lp2699
V544274452381302784
p2700
aS" Thoughts go out to the people under seige in sydney. Possible ISIS attack. Just let them out safe. Let's not start a war!"
p2701
aI0
aa(lp2702
V544273029765685248
p2703
aS" Damn the Muslims back to their version of the 'holy land.'"
p2704
aI0
aa(lp2705
V544272825268183041
p2706
aS'  Looks like a job for Special Ops. Prayers for the hostages.'
p2707
aI0
aa(lp2708
V544276699157135360
p2709
aS'  The police better plan on killing him, because his intentions are not at all in doubt.'
p2710
aI0
aa(lp2711
V544279568233021440
p2712
aS'  But, they are peaceful people and Hilary said they can be negotiated with!'
p2713
aI0
aa(lp2714
V544272860194168833
p2715
aS'.  SHIT. I KNEW IT when I saw the news break. Son-of-a-b.....!!!!!'
p2716
aI0
aa(lp2717
V544275772416880640
p2718
aS" bet they're happy they let those goat humpers into the country."
p2719
aI0
aa(lp2720
V544271682358493184
p2721
aS' time to kich these Muslim fuckers the hell out of every democratic country!'
p2722
aI0
aaa(lp2723
(lp2724
V544476808566276097
p2725
aS"TV channels have chosen not to show videos of hostages relaying sydneysiege gunman's demands.  "
p2726
aI0
aa(lp2727
V544482468410044417
p2728
aS"  wish NDTV &amp; other can learn even 1% from this, NDTV costed soldiers' lives in kargil and lives in 26/11 too, Said SC"
p2729
aI0
aa(lp2730
V544480456478314496
p2731
aS' '
p2732
aI0
aa(lp2733
V544480379147542528
p2734
aS' very bad to c tensed situation at sydney cafe...terrorism shuld be wiped out of the world once for evr'
p2735
aI0
aa(lp2736
V544480133466574848
p2737
aS'  It is right thing.Burkha would deliberately spk to victims to give away positions of police.Learn News traders'
p2738
aI0
aa(lp2739
V544479970894946306
p2740
aS' well done to all for doing whats right'
p2741
aI0
aa(lp2742
V544477652892262400
p2743
aS' And Well Done youtube for taking it down.'
p2744
aI0
aa(lp2745
V544482249459388416
p2746
aS'  I just saw one of the videos here on  here in the US.'
p2747
aI0
aa(lp2748
V544482919595511808
p2749
aS'.  has claimed  aired one of the hostage videos. SydneySiege MartinPlace'
p2750
aI7
aa(lp2751
V544483162965807106
p2752
aS' CNN too I have heard  '
p2753
aI8
aa(lp2754
V544483799174627329
p2755
aS'   heard via whom?'
p2756
aI9
aa(lp2757
V544484075994509312
p2758
aS' '
p2759
aI10
aa(lp2760
V544477705316880384
p2761
aS" whats the waste of time about? put a bullet through the f***ing fanatic's head and bring this thing to an end.."
p2762
aI0
aa(lp2763
V544477084081733632
p2764
aS' the internet says lol'
p2765
aI0
aa(lp2766
V544477183851630592
p2767
aS' Just shoot him! Marksman have clearly had enough opportunities to do so'
p2768
aI0
aa(lp2769
V544485799149187072
p2770
aS'  If they shoot him in the head no bomb will go off. Islamic scum. These wankers are deranged.'
p2771
aI14
aa(lp2772
V544500025016197121
p2773
aS'   This has nothing to do with Islam, just like ISIS...'
p2774
aI15
aa(lp2775
V544505605567041536
p2776
aS"   It has everything 2 do with Islam. U dont see the Jehovah's witnesses cutting heads off &amp; bombing people!"
p2777
aI16
aa(lp2778
V544991347304714240
p2779
aS"   No. It's fanatics. All religions have extremist factions and they're all wrong..."
p2780
aI17
aa(lp2781
V544996195949871104
p2782
aS"   a Jehovah's witness extremist?Mormon extremist?Roman catholic extremist? Etc. Non existent! Muslim...???"
p2783
aI18
aa(lp2784
V544996807324213249
p2785
aS'   peaceful religions. U only have to read the Quran and u can see why these bastards carry out such terrorism'
p2786
aI19
aa(lp2787
V545017860754792448
p2788
aS'   I know that. Perhaps Islam reacts very very late on everything the Catholic Church has done centuries ago'
p2789
aI19
aa(lp2790
V544478273238212608
p2791
aS"  They don't know whether or not he has a booby trapped bomb attached to his person. EasyToCriticise"
p2792
aI14
aa(lp2793
V544480107872915456
p2794
aS"  He's either got a dead mans switch in his hand or he hasn't. Surely they can get this intel from the released hostages?"
p2795
aI22
aa(lp2796
V544531648742973440
p2797
aS"  It's all over now, but I would think those hostages were too traumatised to remember any details."
p2798
aI23
aa(lp2799
V544476993039785984
p2800
aS' Its the right thing to do'
p2801
aI0
aa(lp2802
V544480395585392641
p2803
aS' but the hateful Daily Mail is showing their faces'
p2804
aI0
aa(lp2805
V544480465982611458
p2806
aS" they're on "
p2807
aI0
aa(lp2808
V544501395219808256
p2809
aS'  &lt;&lt; Dumbass sockpuppetmedia.'
p2810
aI27
aa(lp2811
V544501573624545280
p2812
aS'  &lt;&lt; Neanderthal echochambermedia.'
p2813
aI27
aa(lp2814
V544477669216505857
p2815
aS' munich72'
p2816
aI0
aaa(lp2817
(lp2818
V544278985249550337
p2819
aS'Geoblock lifted on ABCNews24. Streaming coverage of the Martin Place siege in Sydney here  '
p2820
aI0
aa(lp2821
V544281249037418496
p2822
aS" it's not working here in the uk mate"
p2823
aI0
aa(lp2824
V544687372030709761
p2825
aS' super awesome'
p2826
aI0
aa(lp2827
V544280339720728576
p2828
aS' Any danger of leaving it off for good?? Expats are shut out by the ABC. Missing quality shows.'
p2829
aI0
aa(lp2830
V544393704560017410
p2831
aS"  it's not often that people need a VPN to get into Aus!"
p2832
aI3
aa(lp2833
V544300186554474497
p2834
aS'  you would have to talk to the content rights holders , they determine where ABC can allow their shows to be broadcast'
p2835
aI3
aa(lp2836
V544284533756284929
p2837
aS'  Still blocked here (USA, iOS iView app). The geoblock lifting never works... &gt;&lt; Just get rid of it. Expats pay tax too!'
p2838
aI0
aa(lp2839
V544281932406599681
p2840
aS' does not seem to work on mobile in the US. What about your YouTube stream? '
p2841
aI0
aa(lp2842
V544281192632053761
p2843
aS' Are your reporters 100% sure it is an ISIS flag? Cause that is what is being reported. facts'
p2844
aI0
aa(lp2845
V544280052175613952
p2846
aS'RT  Geoblock lifted on ABCNews24. \nStreaming coverage of Martin Place siege in Sydney here   sydneysiege'
p2847
aI0
aa(lp2848
V544282085763346432
p2849
aS" Put the geoblock back on! We can have coverage once they're out. Don't broadcast police movements!"
p2850
aI0
aa(lp2851
V544279768636465152
p2852
aS'How hard is it to turn down the external sound ABC?  '
p2853
aI0
aa(lp2854
V544281098906521600
p2855
aS' still does not work in uk'
p2856
aI0
aa(lp2857
V544282786039726080
p2858
aS'Yes. This is what real news is about:  Geoblock lifted on ABCNews24. Streaming coverage of the Martin Place siege in Sydney..."'
p2859
aI0
aa(lp2860
V544282252302381056
p2861
aS'  the more coverage there is the more worried I am its giving these people what they want, and the situation a bad end.'
p2862
aI0
aa(lp2863
V544285782639267840
p2864
aS"  Ta, trying that one too.  I'm on this one "
p2865
aI0
aa(lp2866
V544279390553530368
p2867
aS' cc: '
p2868
aI0
aa(lp2869
V544282314931707904
p2870
aS'  fingers crossed this ends well and swiftly.'
p2871
aI0
aa(lp2872
V544281086705299457
p2873
aS' thanks'
p2874
aI0
aaa(lp2875
(lp2876
V544381485591982083
p2877
aS'Reports on  sydneysiege gunman wants ISIL flag delivered to cafe and he also wants to speak to PM or people will be killed.'
p2878
aI0
aa(lp2879
V544385083574996992
p2880
aS'   haha getting your news from 10 is like watching Looney Tunes for Social skills ha MartinPlace'
p2881
aI0
aa(lp2882
V544386758662565888
p2883
aS"   &amp; really an ISIL flag? Surely when packing his shot gun, that would be the first item he'd pack!"
p2884
aI1
aa(lp2885
V544382677449580544
p2886
aS'   is this same as the "call" to Ray Hadley by "POI" from 10.30am? Or new info?'
p2887
aI0
aa(lp2888
V544381824525291521
p2889
aS'  '
p2890
aI0
aa(lp2891
V544386112672645120
p2892
aS'  terminate him.doing this 2 innocent ppl.give the coward a uniform&amp;put him on battlefield 2 see how tough he is'
p2893
aI0
aa(lp2894
V544382092528721920
p2895
aS'   Yay Tony will save the day'
p2896
aI0
aa(lp2897
V544382713302904832
p2898
aS'  fool bought the wrong flag with him.'
p2899
aI0
aa(lp2900
V544382261097820160
p2901
aS' Source from Ray Hadley shows confirmed same report of gunman claiming there are four packages around Sydney'
p2902
aI0
aa(lp2903
V544384788527083521
p2904
aS'  Deliver him the Australian SAS instead.'
p2905
aI0
aa(lp2906
V544385543342014464
p2907
aS'   take the shot...snipertime'
p2908
aI0
aa(lp2909
V544382534264451072
p2910
aS'   four packages better get Lambie on the case are they large ?'
p2911
aI0
aa(lp2912
V544385104663949313
p2913
aS'   pathetic islamist coward'
p2914
aI0
aaa(lp2915
(lp2916
V544511199702822913
p2917
aS'POLICE MOVE IN: Police confirm live ammunition used in Martin Place sydneysiege'
p2918
aI0
aa(lp2919
V544544489558507522
p2920
aS' POLICE MOVE IN: Police confirm live ammunition used in Martin Place sydneysiege. These are real soldiers!'
p2921
aI0
aa(lp2922
V544618563646918656
p2923
aS'  Who would think otherwise!?!?'
p2924
aI0
aa(lp2925
V544515223689117697
p2926
aS'  what else r they goin to use....tea n fukin sympathy.'
p2927
aI0
aa(lp2928
V544511670890934272
p2929
aS" where's the live stream at"
p2930
aI0
aa(lp2931
V544568884309659649
p2932
aS"  that's good. Dead ammunition doesn't work too well"
p2933
aI0
aa(lp2934
V544540884952694784
p2935
aS'  LOL @ "live ammunition."  You cheeky cunts.'
p2936
aI0
aaa(lp2937
(lp2938
V544277860555710464
p2939
aS'ISIS -holding a Cafe hostage in Sydney- forcing Hostages to press ISIS flags against the Windows DramaAlert HOT! '
p2940
aI0
aa(lp2941
V544444834933903361
p2942
aS' the SASR will sort em out'
p2943
aI0
aa(lp2944
V544278027891646464
p2945
aS' holy shit'
p2946
aI0
aa(lp2947
V544280329050005507
p2948
aS'  really hope this guy doesnt have explosives too :I'
p2949
aI2
aa(lp2950
V544283032732332032
p2951
aS'  u know theres some fucked up people who wants to see him blow up himself'
p2952
aI3
aa(lp2953
V544283762201083904
p2954
aS'  this might not end well honestly, i wouldnt expect isis to hold somthing up without trying to behead or blow it up'
p2955
aI4
aa(lp2956
V544284034902528000
p2957
aS'  is there a live feed somewhere'
p2958
aI5
aa(lp2959
V544284578068713473
p2960
aS' yea ill link in 2 secs im not near comp'
p2961
aI6
aa(lp2962
V544362143903010816
p2963
aS" dick head it's not confirmed its Jihadist extremists. Don't speculate"
p2964
aI0
aa(lp2965
V544365478224101377
p2966
aS"Srry the whole holding the hostages &amp; threatening to kill them made me think it's extreme  my bad. Jk ur dumb!"
p2967
aI8
aa(lp2968
V544278126084517888
p2969
aS' top quality banter'
p2970
aI0
aaa(lp2971
(lp2972
V544306719686656000
p2973
aS'US evacuated Consulate in Sydney after sydneysiege. Emergency warning to U.S. citizens urging them to "maintain high level of vigilance".'
p2974
aI0
aa(lp2975
V544351881284165632
p2976
aS' Consensus translation of the headband is "We sacrifice ourselves for you, O Mohamed. Caveat: photo blurry, text incomplete.'
p2977
aI0
aa(lp2978
V544310227722838017
p2979
aS' makes sense. Did you read the CIA report? Surprised it hS taken this long'
p2980
aI0
aa(lp2981
V544337321349230592
p2982
aS"  maintain high level of vigilance? Against who? Obama said islamic terrorists don't exist in America remember?"
p2983
aI0
aa(lp2984
V544308940024971265
p2985
aS" just curious: does 'evacuate' mean leave  country or city/area? Do you know?"
p2986
aI0
aa(lp2987
V544309593916989440
p2988
aS'  The country would be safer, for us that is.'
p2989
aI4
aa(lp2990
V544311274545217536
p2991
aS' Hoping for a safe and speedy resolution. Praying no one is hurt but that seems unlikely considering.'
p2992
aI5
aa(lp2993
V544309550778957824
p2994
aS' means go home'
p2995
aI4
aa(lp2996
V544310836227895296
p2997
aS' So scary. Hoping situation is resolved very soon &amp; as peacefully as possible.'
p2998
aI7
aa(lp2999
V544309789660942337
p3000
aS'  Good thing Feinstein made sure this will never happen here.'
p3001
aI0
aa(lp3002
V544324787934621697
p3003
aS'RT  US evacuated Consulate in Sydney after sydneysiege. Emergency warning to US citizens: "maintain high level of vigilance".'
p3004
aI0
aa(lp3005
V544309297480364032
p3006
aS'  With their destructive foreign policy, I would think every day would require vigilance.'
p3007
aI0
aa(lp3008
V544314008980172800
p3009
aS"  how do we know the guy isn't just pissed that he got fired or foreclosed on. Or his gf is cheating on him."
p3010
aI0
aa(lp3011
V544315486465716225
p3012
aS'  so why do twitterverse and the Aussies act like Normandy landing is imminent? Because of flag in arabic? Crazy fear.'
p3013
aI12
aa(lp3014
V544314667795873792
p3015
aS"  We don't."
p3016
aI12
aa(lp3017
V544311486118887425
p3018
aS' What ?? Sorry I missed this !! '
p3019
aI0
aa(lp3020
V544308632997724160
p3021
aS"  That's comforting"
p3022
aI0
aaa(lp3023
(lp3024
V544289409294553088
p3025
aS'Full statement from PM Abbott on Sydneysiege MartinPlace Lindt. '
p3026
aI0
aa(lp3027
V544294003361857537
p3028
aS' thanks for the update Latika.'
p3029
aI0
aa(lp3030
V544316464719609856
p3031
aS' '
p3032
aI0
aa(lp3033
V544290339339517952
p3034
aS'  he put out a statement instead of personally speaking to the Australian ppl, why?? Is he hiding under his desk!'
p3035
aI0
aa(lp3036
V544291580958351360
p3037
aS'  poor form not removing names.'
p3038
aI0
aa(lp3039
V544407913125515264
p3040
aS' that unread count... nnnnggggg'
p3041
aI0
aa(lp3042
V544289517436272640
p3043
aS' And to be even-handed, it puts it into perspective to a Mr Bolt as well.'
p3044
aI0
aa(lp3045
V544290247710744576
p3046
aS" very impressed that you're on the mail list. suggest that you edit out the non-essential info, like names and phone numbers"
p3047
aI0
aa(lp3048
V544292788498464768
p3049
aS" couldn't care less about anyone but herself. She does this all the time. "
p3050
aI7
aa(lp3051
V544291789008412673
p3052
aS' Same old same old story more lies from the weasel liar PM'
p3053
aI0
aa(lp3054
V544291886131736577
p3055
aS" Isn't it etiquette to remove names from a press release?"
p3056
aI0
aaa(lp3057
(lp3058
V544271069146656768
p3059
aS'We understand there are two gunmen and up to a dozen hostages inside the cafe under siege at Sydney.. ISIS flags remain on display 7News'
p3060
aI0
aa(lp3061
V544300575592939520
p3062
aS'  Journalists report facts - reporters bleat out crap they hear. ISIS my arse.'
p3063
aI0
aa(lp3064
V544272007013994496
p3065
aS"  sorry - how do you know it's an ISIS flag? Can you actually confirm that?"
p3066
aI0
aa(lp3067
V544280324360781824
p3068
aS"   no she can't cos it's actually not"
p3069
aI2
aa(lp3070
V544292547955146752
p3071
aS' several of your tweets are either wrong or misleading. Please hold yourself to higher journalism standards!'
p3072
aI0
aa(lp3073
V544414074906222593
p3074
aS' This is not true. As you have made a lot of Tweets you may have forgotten this one. Do the right thing and remove it.'
p3075
aI0
aa(lp3076
V544272839889526784
p3077
aS'  Have you actually confirmed its an ISIS flag or are you talking shit'
p3078
aI0
aa(lp3079
V544304399456432128
p3080
aS" Flag in Sydney hostage situation shows the Islamic profession of faith ('shahada'). Not an IS flag despite the same wording"
p3081
aI0
aa(lp3082
V544274483289157632
p3083
aS'  not ISIS flags. Shahada flags.'
p3084
aI0
aa(lp3085
V544271964890611712
p3086
aS'  not ISIS flags'
p3087
aI0
aa(lp3088
V544272511912136704
p3089
aS'MT  We understand there are two gunmen and up to a dozen hostages inside the cafe under siege at Sydney.. ISIS flags on display'
p3090
aI0
aa(lp3091
V544272856528715776
p3092
aS' More on situation at Martin Place in Sydney, AU \n\n '
p3093
aI10
aa(lp3094
V544273614229733377
p3095
aS" yeah. That's her station"
p3096
aI11
aaa(lp3097
(lp3098
V544399927045283840
p3099
aS'NSW Police confirm 5 hostages have emerged from sydneysiege and they are negotiating: "It might take a bit of time" '
p3100
aI0
aa(lp3101
V544400948840636416
p3102
aS" a bit of time isn't going to do much good if they start shooting"
p3103
aI0
aa(lp3104
V544402102106464256
p3105
aS'  hoping everyone is freed unharmed ... The hostages must be terrified !! Swat team shoot the bastard !!'
p3106
aI0
aa(lp3107
V544400873934188544
p3108
aS" why don't Aussie swat take the fucker out??"
p3109
aI0
aa(lp3110
V544401782676680704
p3111
aS'Police confirm they are "monitoring Facebook &amp; Twitter" after reports hostages are tweeting from inside sydneysiege '
p3112
aI0
aa(lp3113
V544406663898624000
p3114
aS' how irresponsible tweeting this info, putting innocent lives in jeopardy for a story..shame on you BBC'
p3115
aI4
aa(lp3116
V544415646138630144
p3117
aS'In pictures: the SydneySiege  Follow live updates:  '
p3118
aI4
aa(lp3119
V544421956360368129
p3120
aS'In pictures: the SydneySiege  Follow live updates:   rt'
p3121
aI6
aa(lp3122
V544419885128744960
p3123
aS' Muslims, again.'
p3124
aI6
aa(lp3125
V544465538882084864
p3126
aS'  Extremist rather, no true Muslim will do such nonsense act! The world should know this by now...'
p3127
aI8
aa(lp3128
V544557233455910913
p3129
aS'  Muslims are a problem all around the world and your statement is false and a lie.'
p3130
aI9
aa(lp3131
V544559045307142144
p3132
aS'  I was trying to enlighten you on what a Muslim and Islam is cos you seemed so ignorant! Blame d person not religion'
p3133
aI10
aa(lp3134
V544563172699426816
p3135
aS'  jet so many Muslims around the world are a problem how do you explain that?'
p3136
aI11
aa(lp3137
V544564201700614145
p3138
aS'  There are fallouts in every thing, unfortunately the fallouts here are taking center stage and denting the majority'
p3139
aI12
aa(lp3140
V544563846124285953
p3141
aS'  Actually the ones causing the problem are less than 10% , the media makes it seem as if its the whole population.'
p3142
aI12
aa(lp3143
V544607293329780736
p3144
aS' So 10% would be about 100 million muslims, being a problem, trouble spots around the world, nothing to do w/ media.'
p3145
aI14
aa(lp3146
V544438671534202880
p3147
aS'Awful! RT  the SydneySiege  Follow live updates:  '
p3148
aI6
aa(lp3149
V544403346535501824
p3150
aS' yes there were tweets from inside the cafe. I assume some the hostages had feelings of empathy and sympathy stockholmsyndrome'
p3151
aI4
aa(lp3152
V544419151973208064
p3153
aS'  Stockholm syndrome?  What planet are you on?'
p3154
aI17
aa(lp3155
V544403899679899648
p3156
aS" so let me get this straight. Sydney's being evacuated due to hostage situation in a cafe. Aussies are total pussies. wtffff"
p3157
aI4
aa(lp3158
V544407042111205377
p3159
aS'  Matt you clearly need too come out of the closet you fkn moron - what a ridiculous thing too say.'
p3160
aI19
aa(lp3161
V544405974233387008
p3162
aS' you scumbag'
p3163
aI19
aa(lp3164
V544404955872763905
p3165
aS' and you thought reporting hostages are tweeting from inside would what?  keep them alive? SHUT YOUR RECKLESS MOUTH'
p3166
aI4
aa(lp3167
V544408627512360961
p3168
aS'  why tell the whole world you morons...'
p3169
aI4
aa(lp3170
V544416983224430592
p3171
aS" The hostage taker possibly knows and is allowing them to be on their phones. I hope that's not a bad sign."
p3172
aI4
aa(lp3173
V544416567761838081
p3174
aS' Hmm... 9/11 hijackers allowed outside contact, too. Hope police get them all out safe.'
p3175
aI4
aa(lp3176
V544402711337529344
p3177
aS'  i dont believe anyone could be posting updates if they r are a hostage...just saying...'
p3178
aI4
aa(lp3179
V544407267173351424
p3180
aS'   The gunman told them what 2 post...'
p3181
aI26
aa(lp3182
V544402104639827968
p3183
aS' they should not be putting this out there. What happens if someone informs the gunman. This could put lives at risk'
p3184
aI4
aa(lp3185
V544402353659838464
p3186
aS' everyone still has time to Tweet!'
p3187
aI4
aa(lp3188
V544405226451922944
p3189
aS' a simply stupid post by the BBC with no thought for lives IdiotsAtBBC'
p3190
aI4
aaa(lp3191
(lp3192
V544269749405097984
p3193
aS"BREAKING: Live coverage of hostage situation unfolding in Sydney's Martin Place  "
p3194
aI0
aa(lp3195
V544270541725511680
p3196
aS"  That sure looks like an ISIS flag to me! You bastards, don't bring your filthy terror religion to my country!"
p3197
aI0
aa(lp3198
V544273762921615360
p3199
aS'  what a horrible situation ...just hope it is not ISIL...it will not end well...'
p3200
aI1
aa(lp3201
V544280276914827264
p3202
aS'SIEGE in OZ =    '
p3203
aI0
aa(lp3204
V544273706545991681
p3205
aS" That's not the Isis flag."
p3206
aI0
aa(lp3207
V544272498238304256
p3208
ag355
aI0
aa(lp3209
V544272301416775680
p3210
aS'  feel the enrichment'
p3211
aI0
aa(lp3212
V544273610311876608
p3213
aS"Terrifying  BREAKING:  Hostage situation unfolding in Sydney's Martin Place  "
p3214
aI0
aa(lp3215
V544276279860924418
p3216
aS"MT  Live coverage of hostage situation unfolding in Sydney's Martin Place  "
p3217
aI0
aa(lp3218
V544279982336258049
p3219
aS'  We need new hero. '
p3220
aI0
aa(lp3221
V544272759657078785
p3222
aS"RT  Live coverage of hostage situation unfolding in Sydney's Martin Place  "
p3223
aI0
aa(lp3224
V544274434765225985
p3225
aS'  if it is ISIS connected, cut off the oxygen right now. No coverage.'
p3226
aI0
aa(lp3227
V544277779517165568
p3228
aS'  Is that the Lindt chocolate cafe?'
p3229
aI0
aa(lp3230
V544277158747574272
p3231
aS" I hope this isn't what it looks like I hope everyone comes out safe"
p3232
aI0
aaa(lp3233
(lp3234
V544271362022338560
p3235
aS'Black Islamic flag being held up in window of lindt chocolate store in Martin Place, Sydney - hostages inside. '
p3236
aI0
aa(lp3237
V544276206728671232
p3238
aS'  doing what their man made twisted fairy tale tells them to do. banislam'
p3239
aI0
aa(lp3240
V544277466639257601
p3241
aS'  Get the snipers out and exterminate \n'
p3242
aI0
aa(lp3243
V544276495213268993
p3244
aS'  I hope everyone gets out safely.'
p3245
aI0
aa(lp3246
V544275000039972864
p3247
aS'WTF. " Black Islamic flag being held up in window of lindt store in Martin Place- hostages inside. '
p3248
aI0
aa(lp3249
V544272691260178432
p3250
aS'  "islamic flag"\nheaddesk'
p3251
aI0
aa(lp3252
V544278051245551616
p3253
aS'   Yes "Islamic" flag. Black a traditional colour of Islam and I presume a Koranic verse also.'
p3254
aI5
aa(lp3255
V544278513264513024
p3256
aS'   Green is the traditional colour.\nPresumptions are worthless'
p3257
aI6
aa(lp3258
V544279162866122755
p3259
aS'   Read the tweet again "a" as is green, red .. Are you saying the text is not presumably Koranic?'
p3260
aI7
aa(lp3261
V544279546766180352
p3262
aS'   cant read arabic it could be anything\nMore informed people tell me its a shadah flag which is generic'
p3263
aI8
aa(lp3264
V544280600610603008
p3265
aS'   ah I see. The Shahadah having nothing to do with the Koran. Got you.'
p3266
aI9
aa(lp3267
V544280949496619009
p3268
aS'   shahada flag is a generic flag, not unique to any group. ISIS use a different flag'
p3269
aI10
aa(lp3270
V544283418314690560
p3271
aS'   Who typed "ISIS"? Islamic flag was used in the original tweet.'
p3272
aI11
aa(lp3273
V544283765023846400
p3274
aS'   almost every media outlet for the first 20 minutes until people remembered how google works'
p3275
aI12
aa(lp3276
V544284471919652864
p3277
aS"   So just generic islamic terrorists.. that's a relief"
p3278
aI13
aa(lp3279
V544284756876472321
p3280
aS'   Possibly, yes. And if so, yes would suggest less chance of a larger group.'
p3281
aI14
aa(lp3282
V544280000124694528
p3283
aS'   so we still not sure of the motivation for the attack?'
p3284
aI0
aa(lp3285
V544275986171572224
p3286
aS'  but its such a peaceful religion /s'
p3287
aI0
aaa(lp3288
(lp3289
V544272537341812736
p3290
aS'SYDNEY SIEGE: Gunman forces hostages to hold up ISIS flag in window  '
p3291
aI0
aa(lp3292
V544273516397219841
p3293
aS"  \n\nGuess Sydney's off our list....."
p3294
aI0
aa(lp3295
V544275851559579648
p3296
aS' well, not today, for sure.'
p3297
aI1
aa(lp3298
V544273878668050432
p3299
aS'  If they only knew that ISIS was created by the American government.'
p3300
aI0
aa(lp3301
V544272859846045696
p3302
aS'  MT  These not the same. 1st Shahadah flag, 2nd is specifically claimed by IS. '
p3303
aI0
aa(lp3304
V544275868684935168
p3305
aS' SYDNEY SIEGE: Gunman forces hostages to hold up ISIS flag in window   wtf'
p3306
aI0
aa(lp3307
V544277459500556288
p3308
aS' Are you sure they have guns ?? Australia has banned a lot of them ??'
p3309
aI0
aa(lp3310
V544333165612269569
p3311
aS"  okay just because guns are banned doesn't mean people don't have them please be aware of that"
p3312
aI6
aa(lp3313
V544559843898839040
p3314
aS'  Yes I know that hand gun crime is up 55% where I live and they are banned ! :('
p3315
aI7
aa(lp3316
V544272987000541184
p3317
aS"  Took me 2 sec to google ISIS flag and see this wasn't it. Your research budget that bad?"
p3318
aI0
aa(lp3319
V544277865299062784
p3320
aS' \nRT  ISIS and IslamicState work for CIA claims former al-Qaeda commander. \n'
p3321
aI0
aa(lp3322
V544280076628414464
p3323
aS' Oh dear!  PRAY for these innocent people in Sydney who are being held up in a Cafe just before Christmas!  Good Lord Almighty!'
p3324
aI0
aa(lp3325
V544275153266696193
p3326
aS' SYDNEY SIEGE Gunman forces hostages to hold up ISIS flag in window   '
p3327
aI0
aaa(lp3328
(lp3329
V544512108885725184
p3330
aS'Paramedics are currently carrying out a number of hostages in MartinPl. SydneySiege 9News'
p3331
aI0
aa(lp3332
V544513191934713857
p3333
aS"  I hope I'm wrong, but sounded like 3 shotgun blasts started activity...then automatic weapons fire. 1/2"
p3334
aI0
aa(lp3335
V544513414023094272
p3336
aS'  That would mean worst case: scumbag started shooting hostages and police responded. Hope that is not the case. 2/2'
p3337
aI0
aa(lp3338
V544514136915185664
p3339
aS'  Should have snipered him.'
p3340
aI0
aa(lp3341
V544514393372127232
p3342
aS" I heard (who knows if it's true) there might be explosives.  Not a good time to shot."
p3343
aI3
aa(lp3344
V544514442491596800
p3345
aS' Aside from that, yeah.'
p3346
aI3
aa(lp3347
V544521755289600001
p3348
aS' This peaceful resolution shit just resulted in dead and wounded hostages'
p3349
aI5
aa(lp3350
V544522356354740224
p3351
aS" My only issue with shooting him in the head was that it's too quick of a death."
p3352
aI6
aa(lp3353
V544522299693862912
p3354
aS' Again, so far as I can tell, they were worried about explosives, and it appears there was an explosion.'
p3355
aI6
aa(lp3356
V544524690262208513
p3357
aS' That was probably a flash-boom from police'
p3358
aI8
aa(lp3359
V544525364857700352
p3360
aS' No idea, but Muslim terrorists do love their explosives.'
p3361
aI9
aa(lp3362
V544513062901141504
p3363
aS'  I just pray the hostages will all live to see another day.'
p3364
aI0
aaa(lp3365
(lp3366
V544374511194632192
p3367
aS'UPDATE: Total of 5 people have been able to get out of Sydney cafe during hostage situation:  '
p3368
aI0
aa(lp3369
V544398446568820736
p3370
ag355
aI0
aa(lp3371
V544419593427488768
p3372
aS" let's see if they can do better than Hpd! Don't kill them all"
p3373
aI0
aa(lp3374
V544375195612758016
p3375
aS" I hope they didn't spill their lattes."
p3376
aI0
aa(lp3377
V544375392996302849
p3378
aS' so why is there still no info from escaped hostages as to the number of hostages &amp; "militants"...?'
p3379
aI0
aa(lp3380
V544375077622407168
p3381
aS' of 5 people have been able to get out of cafe during hostage situation: '
p3382
aI0
aa(lp3383
V544383497482539008
p3384
aS' ok now your story is getting less credible!  Should have known.'
p3385
aI0
aa(lp3386
V544401892596408320
p3387
aS' Is he sleeping...?'
p3388
aI0
aaa.